ARM GAS  C:\Users\TINYWI~1\AppData\Local\Temp\ccRSWiSw.s 			page 1


   1              		.cpu cortex-m0
   2              		.fpu softvfp
   3              		.eabi_attribute 20, 1
   4              		.eabi_attribute 21, 1
   5              		.eabi_attribute 23, 3
   6              		.eabi_attribute 24, 1
   7              		.eabi_attribute 25, 1
   8              		.eabi_attribute 26, 1
   9              		.eabi_attribute 30, 6
  10              		.eabi_attribute 34, 0
  11              		.eabi_attribute 18, 4
  12              		.code	16
  13              		.file	"CapSense_SMS.c"
  14              		.text
  15              	.Ltext0:
  16              		.cfi_sections	.debug_frame
  17              		.global	prescalerTable
  18              		.section	.rodata
  19              		.align	2
  20              		.type	prescalerTable, %object
  21              		.size	prescalerTable, 16
  22              	prescalerTable:
  23 0000 01       		.byte	1
  24 0001 01       		.byte	1
  25 0002 01       		.byte	1
  26 0003 02       		.byte	2
  27 0004 02       		.byte	2
  28 0005 02       		.byte	2
  29 0006 02       		.byte	2
  30 0007 04       		.byte	4
  31 0008 04       		.byte	4
  32 0009 04       		.byte	4
  33 000a 04       		.byte	4
  34 000b 04       		.byte	4
  35 000c 04       		.byte	4
  36 000d 04       		.byte	4
  37 000e 04       		.byte	4
  38 000f 04       		.byte	4
  39              		.comm	noiseEnvelopeTbl,5,4
  40              		.comm	runningDifferenceTbl,5,4
  41              		.comm	signRegisterTbl,5,4
  42              		.comm	sampleMinTbl,10,4
  43              		.comm	sampleMaxTbl,10,4
  44              		.comm	previousSampleTbl,10,4
  45              		.comm	kValueTbl,5,4
  46              		.global	SMS_LIB_SensorSensitivity
  47              		.data
  48              		.align	2
  49              		.type	SMS_LIB_SensorSensitivity, %object
  50              		.size	SMS_LIB_SensorSensitivity, 5
  51              	SMS_LIB_SensorSensitivity:
  52 0000 04       		.byte	4
  53 0001 04       		.byte	4
  54 0002 04       		.byte	4
  55 0003 04       		.byte	4
  56 0004 04       		.byte	4
  57              		.comm	CapSense_config,12,4
ARM GAS  C:\Users\TINYWI~1\AppData\Local\Temp\ccRSWiSw.s 			page 2


  58              		.global	CapSense_configPointers
  59 0005 000000   		.section	.rodata
  60              		.align	2
  61              		.type	CapSense_configPointers, %object
  62              		.size	CapSense_configPointers, 56
  63              	CapSense_configPointers:
  64 0010 00000000 		.word	CapSense_modulationIDAC
  65 0014 00000000 		.word	CapSense_compensationIDAC
  66 0018 00000000 		.word	SMS_LIB_SensorSensitivity
  67 001c 00000000 		.word	CapSense_senseClkDividerVal
  68 0020 00000000 		.word	CapSense_sampleClkDividerVal
  69 0024 00000000 		.word	CapSense_widgetNumber
  70 0028 00000000 		.word	CapSense_widgetResolution
  71 002c 00000000 		.word	CapSense_rawDataIndex
  72 0030 00000000 		.word	CapSense_numberOfSensors
  73 0034 00000000 		.word	CapSense_GetSensorRaw
  74 0038 00000000 		.word	CapSense_PreScan
  75 003c 00000000 		.word	CapSense_ReadSensorRaw
  76 0040 00000000 		.word	CapSense_GetBitValue
  77 0044 00000000 		.word	CapSense_SetBitValue
  78              		.section	.text.CapSense_AutoTune,"ax",%progbits
  79              		.align	2
  80              		.global	CapSense_AutoTune
  81              		.code	16
  82              		.thumb_func
  83              		.type	CapSense_AutoTune, %function
  84              	CapSense_AutoTune:
  85              	.LFB33:
  86              		.file 1 ".\\Generated_Source\\PSoC4\\CapSense_SMS.c"
   1:.\Generated_Source\PSoC4/CapSense_SMS.c **** /*******************************************************************************
   2:.\Generated_Source\PSoC4/CapSense_SMS.c **** * File Name: CapSense_SMS.c
   3:.\Generated_Source\PSoC4/CapSense_SMS.c **** * Version 2.20
   4:.\Generated_Source\PSoC4/CapSense_SMS.c **** *
   5:.\Generated_Source\PSoC4/CapSense_SMS.c **** * Description:
   6:.\Generated_Source\PSoC4/CapSense_SMS.c **** *  This file provides the source code of wrapper between CapSense CSD component 
   7:.\Generated_Source\PSoC4/CapSense_SMS.c **** *  and Auto Tuning library.
   8:.\Generated_Source\PSoC4/CapSense_SMS.c **** *
   9:.\Generated_Source\PSoC4/CapSense_SMS.c **** * Note:
  10:.\Generated_Source\PSoC4/CapSense_SMS.c **** *
  11:.\Generated_Source\PSoC4/CapSense_SMS.c **** ********************************************************************************
  12:.\Generated_Source\PSoC4/CapSense_SMS.c **** * Copyright 2014, Cypress Semiconductor Corporation.  All rights reserved.
  13:.\Generated_Source\PSoC4/CapSense_SMS.c **** * You may use this file only in accordance with the license, terms, conditions,
  14:.\Generated_Source\PSoC4/CapSense_SMS.c **** * disclaimers, and limitations in the end user license agreement accompanying
  15:.\Generated_Source\PSoC4/CapSense_SMS.c **** * the software package with which this file was provided.
  16:.\Generated_Source\PSoC4/CapSense_SMS.c **** *******************************************************************************/
  17:.\Generated_Source\PSoC4/CapSense_SMS.c **** 
  18:.\Generated_Source\PSoC4/CapSense_SMS.c **** #include "CapSense_SMS.h"
  19:.\Generated_Source\PSoC4/CapSense_SMS.c **** #include "CapSense_PVT.h"
  20:.\Generated_Source\PSoC4/CapSense_SMS.c **** 
  21:.\Generated_Source\PSoC4/CapSense_SMS.c **** #include "cytypes.h"
  22:.\Generated_Source\PSoC4/CapSense_SMS.c **** 
  23:.\Generated_Source\PSoC4/CapSense_SMS.c **** #if (CapSense_TUNING_METHOD == CapSense__TUNING_AUTO)
  24:.\Generated_Source\PSoC4/CapSense_SMS.c **** 
  25:.\Generated_Source\PSoC4/CapSense_SMS.c **** 
  26:.\Generated_Source\PSoC4/CapSense_SMS.c **** /*  Real Charge Divider values */
  27:.\Generated_Source\PSoC4/CapSense_SMS.c **** #if (CY_PSOC4_4100BL || CY_PSOC4_4200BL || CY_PSOC4_4100M || CY_PSOC4_4200M)
  28:.\Generated_Source\PSoC4/CapSense_SMS.c ****     /*  Dividers are not chained */
ARM GAS  C:\Users\TINYWI~1\AppData\Local\Temp\ccRSWiSw.s 			page 3


  29:.\Generated_Source\PSoC4/CapSense_SMS.c **** 	#if (CYDEV_BCLK__HFCLK__MHZ > 24u)
  30:.\Generated_Source\PSoC4/CapSense_SMS.c **** 		const uint8 prescalerTable[CapSense_PRESCALERS_TBL_SIZE] = {
  31:.\Generated_Source\PSoC4/CapSense_SMS.c **** 			4u,     4u,     4u,    8u,    8u,    8u,    8u,    16u,    16u,    16u,    16u,    16u,    16u, 
  32:.\Generated_Source\PSoC4/CapSense_SMS.c **** 		};
  33:.\Generated_Source\PSoC4/CapSense_SMS.c **** 	#elif (CYDEV_BCLK__HFCLK__MHZ >12u)
  34:.\Generated_Source\PSoC4/CapSense_SMS.c **** 		const uint8 prescalerTable[CapSense_PRESCALERS_TBL_SIZE] = {
  35:.\Generated_Source\PSoC4/CapSense_SMS.c **** 			2u,     2u,     2u,    4u,    4u,    4u,    4u,    8u,    8u,    8u,    8u,    8u,    8u,    8u,
  36:.\Generated_Source\PSoC4/CapSense_SMS.c **** 		};
  37:.\Generated_Source\PSoC4/CapSense_SMS.c **** 	#else   /* (CYDEV_BCLK__HFCLK__MHZ > 12u) */
  38:.\Generated_Source\PSoC4/CapSense_SMS.c **** 		const uint8 prescalerTable[CapSense_PRESCALERS_TBL_SIZE] = {
  39:.\Generated_Source\PSoC4/CapSense_SMS.c **** 			1u,     1u,     1u,    2u,    2u,    2u,    2u,    4u,    4u,    4u,    4u,    4u,    4u,    4u,
  40:.\Generated_Source\PSoC4/CapSense_SMS.c **** 		};
  41:.\Generated_Source\PSoC4/CapSense_SMS.c **** 	#endif /* (CYDEV_BCLK__HFCLK__MHZ > 24u) */
  42:.\Generated_Source\PSoC4/CapSense_SMS.c **** 	
  43:.\Generated_Source\PSoC4/CapSense_SMS.c **** #elif (0u != CapSense_IS_M0S8PERI_BLOCK)
  44:.\Generated_Source\PSoC4/CapSense_SMS.c ****     /*  Dividers are not chained (PSoC 4000) */
  45:.\Generated_Source\PSoC4/CapSense_SMS.c **** 	#if (CYDEV_BCLK__HFCLK__MHZ >= 12u)
  46:.\Generated_Source\PSoC4/CapSense_SMS.c **** 		const uint8 prescalerTable[CapSense_PRESCALERS_TBL_SIZE] = {
  47:.\Generated_Source\PSoC4/CapSense_SMS.c **** 			1u,     1u,     1u,    2u,    2u,    2u,    2u,    4u,    4u,    4u,    4u,    4u,    4u,    4u,
  48:.\Generated_Source\PSoC4/CapSense_SMS.c **** 		};
  49:.\Generated_Source\PSoC4/CapSense_SMS.c **** 
  50:.\Generated_Source\PSoC4/CapSense_SMS.c **** 	#elif (CYDEV_BCLK__HFCLK__MHZ >= 6u)
  51:.\Generated_Source\PSoC4/CapSense_SMS.c **** 		const uint8 prescalerTable[CapSense_PRESCALERS_TBL_SIZE] = {
  52:.\Generated_Source\PSoC4/CapSense_SMS.c **** 			1u,     1u,     1u,    1u,    1u,    1u,    1u,    2u,    2u,    2u,    2u,    2u,    2u,    2u,
  53:.\Generated_Source\PSoC4/CapSense_SMS.c **** 		};
  54:.\Generated_Source\PSoC4/CapSense_SMS.c **** 	#else
  55:.\Generated_Source\PSoC4/CapSense_SMS.c **** 		const uint8 prescalerTable[CapSense_PRESCALERS_TBL_SIZE] = {
  56:.\Generated_Source\PSoC4/CapSense_SMS.c **** 			1u,     1u,     1u,    1u,    1u,    1u,    1u,    1u,    1u,    1u,    1u,    1u,    1u,    1u,
  57:.\Generated_Source\PSoC4/CapSense_SMS.c **** 		};
  58:.\Generated_Source\PSoC4/CapSense_SMS.c **** 	#endif /* (CYDEV_BCLK__HFCLK__MHZ > 12u) */
  59:.\Generated_Source\PSoC4/CapSense_SMS.c **** 
  60:.\Generated_Source\PSoC4/CapSense_SMS.c **** #else
  61:.\Generated_Source\PSoC4/CapSense_SMS.c ****     /*  Dividers are chained (PSoC 4100, PSoC 4200) */ 
  62:.\Generated_Source\PSoC4/CapSense_SMS.c **** 	#if (CYDEV_BCLK__HFCLK__MHZ > 24u)
  63:.\Generated_Source\PSoC4/CapSense_SMS.c **** 		const uint8 prescalerTable[CapSense_PRESCALERS_TBL_SIZE] = {
  64:.\Generated_Source\PSoC4/CapSense_SMS.c **** 			2u,     2u,     2u,    4u,    4u,    4u,    4u,    8u,    8u,    8u,    8u,    8u,    8u,    8u,
  65:.\Generated_Source\PSoC4/CapSense_SMS.c **** 		};
  66:.\Generated_Source\PSoC4/CapSense_SMS.c **** 
  67:.\Generated_Source\PSoC4/CapSense_SMS.c **** 	#elif (CYDEV_BCLK__HFCLK__MHZ >12u)
  68:.\Generated_Source\PSoC4/CapSense_SMS.c **** 		const uint8 prescalerTable[CapSense_PRESCALERS_TBL_SIZE] = {
  69:.\Generated_Source\PSoC4/CapSense_SMS.c **** 			1u,     1u,     1u,    2u,    2u,    2u,    2u,    4u,    4u,    4u,    4u,    4u,    4u,    4u,
  70:.\Generated_Source\PSoC4/CapSense_SMS.c **** 		};
  71:.\Generated_Source\PSoC4/CapSense_SMS.c **** 	#else   /* (CYDEV_BCLK__HFCLK__MHZ > 12u) */
  72:.\Generated_Source\PSoC4/CapSense_SMS.c **** 		const uint8 prescalerTable[CapSense_PRESCALERS_TBL_SIZE] = {
  73:.\Generated_Source\PSoC4/CapSense_SMS.c **** 			1u,     1u,     1u,    1u,    1u,    1u,    1u,    2u,    2u,    2u,    2u,    2u,    2u,    2u,
  74:.\Generated_Source\PSoC4/CapSense_SMS.c **** 		};
  75:.\Generated_Source\PSoC4/CapSense_SMS.c **** 	#endif /* (CYDEV_BCLK__HFCLK__MHZ > 24u) */
  76:.\Generated_Source\PSoC4/CapSense_SMS.c **** #endif /* (CY_PSOC4_4100BL || CY_PSOC4_4200BL || CY_PSOC4_4100M || CY_PSOC4_4200M) */
  77:.\Generated_Source\PSoC4/CapSense_SMS.c **** 
  78:.\Generated_Source\PSoC4/CapSense_SMS.c **** 
  79:.\Generated_Source\PSoC4/CapSense_SMS.c **** uint8 noiseEnvelopeTbl[CapSense_TOTAL_SENSOR_COUNT];
  80:.\Generated_Source\PSoC4/CapSense_SMS.c **** uint8 runningDifferenceTbl[CapSense_TOTAL_SENSOR_COUNT];
  81:.\Generated_Source\PSoC4/CapSense_SMS.c **** uint8 signRegisterTbl[CapSense_TOTAL_SENSOR_COUNT];
  82:.\Generated_Source\PSoC4/CapSense_SMS.c **** uint16 sampleMinTbl[CapSense_TOTAL_SENSOR_COUNT];
  83:.\Generated_Source\PSoC4/CapSense_SMS.c **** uint16 sampleMaxTbl[CapSense_TOTAL_SENSOR_COUNT];
  84:.\Generated_Source\PSoC4/CapSense_SMS.c **** uint16 previousSampleTbl[CapSense_TOTAL_SENSOR_COUNT];
  85:.\Generated_Source\PSoC4/CapSense_SMS.c **** uint8 kValueTbl[CapSense_TOTAL_SENSOR_COUNT];
ARM GAS  C:\Users\TINYWI~1\AppData\Local\Temp\ccRSWiSw.s 			page 4


  86:.\Generated_Source\PSoC4/CapSense_SMS.c **** 
  87:.\Generated_Source\PSoC4/CapSense_SMS.c **** uint8 SMS_LIB_SensorSensitivity[] = {
  88:.\Generated_Source\PSoC4/CapSense_SMS.c ****     4u, 4u, 4u, 4u, 4u, 
  89:.\Generated_Source\PSoC4/CapSense_SMS.c **** };
  90:.\Generated_Source\PSoC4/CapSense_SMS.c **** 
  91:.\Generated_Source\PSoC4/CapSense_SMS.c **** CapSense_CONFIG_TYPE_P4_v2_20 CapSense_config;
  92:.\Generated_Source\PSoC4/CapSense_SMS.c **** CapSense_CONFIG_TYPE_POINTERS_P4_v2_20 const CapSense_configPointers = {
  93:.\Generated_Source\PSoC4/CapSense_SMS.c ****     CapSense_modulationIDAC,
  94:.\Generated_Source\PSoC4/CapSense_SMS.c ****     CapSense_compensationIDAC,
  95:.\Generated_Source\PSoC4/CapSense_SMS.c ****      SMS_LIB_SensorSensitivity,
  96:.\Generated_Source\PSoC4/CapSense_SMS.c ****     CapSense_senseClkDividerVal,
  97:.\Generated_Source\PSoC4/CapSense_SMS.c ****     CapSense_sampleClkDividerVal,
  98:.\Generated_Source\PSoC4/CapSense_SMS.c ****     CapSense_widgetNumber,
  99:.\Generated_Source\PSoC4/CapSense_SMS.c ****     CapSense_widgetResolution,
 100:.\Generated_Source\PSoC4/CapSense_SMS.c **** 	(const uint8  *)CapSense_rawDataIndex,
 101:.\Generated_Source\PSoC4/CapSense_SMS.c **** 	(const uint8  *)CapSense_numberOfSensors,
 102:.\Generated_Source\PSoC4/CapSense_SMS.c ****     &CapSense_GetSensorRaw,
 103:.\Generated_Source\PSoC4/CapSense_SMS.c ****     &CapSense_PreScan,
 104:.\Generated_Source\PSoC4/CapSense_SMS.c ****     &CapSense_ReadSensorRaw,
 105:.\Generated_Source\PSoC4/CapSense_SMS.c ****     &CapSense_GetBitValue,
 106:.\Generated_Source\PSoC4/CapSense_SMS.c **** 	&CapSense_SetBitValue
 107:.\Generated_Source\PSoC4/CapSense_SMS.c **** };
 108:.\Generated_Source\PSoC4/CapSense_SMS.c **** 
 109:.\Generated_Source\PSoC4/CapSense_SMS.c **** 
 110:.\Generated_Source\PSoC4/CapSense_SMS.c **** /*******************************************************************************
 111:.\Generated_Source\PSoC4/CapSense_SMS.c **** * Function Name: CapSense_AutoTune
 112:.\Generated_Source\PSoC4/CapSense_SMS.c **** ********************************************************************************
 113:.\Generated_Source\PSoC4/CapSense_SMS.c **** *
 114:.\Generated_Source\PSoC4/CapSense_SMS.c **** * Summary:
 115:.\Generated_Source\PSoC4/CapSense_SMS.c **** *  Provides the tuning procedure for all sensors.
 116:.\Generated_Source\PSoC4/CapSense_SMS.c **** *
 117:.\Generated_Source\PSoC4/CapSense_SMS.c **** * Parameters:
 118:.\Generated_Source\PSoC4/CapSense_SMS.c **** *  None
 119:.\Generated_Source\PSoC4/CapSense_SMS.c **** *
 120:.\Generated_Source\PSoC4/CapSense_SMS.c **** * Return:
 121:.\Generated_Source\PSoC4/CapSense_SMS.c **** *  None
 122:.\Generated_Source\PSoC4/CapSense_SMS.c **** *
 123:.\Generated_Source\PSoC4/CapSense_SMS.c **** * Global Variables:
 124:.\Generated_Source\PSoC4/CapSense_SMS.c **** *   CapSense_config: the structure which contains configuration parameters
 125:.\Generated_Source\PSoC4/CapSense_SMS.c **** *   CapSense_senseClkDividerVal[]: used to store the Analog Switch 
 126:.\Generated_Source\PSoC4/CapSense_SMS.c **** *   dividers for each sensor.
 127:.\Generated_Source\PSoC4/CapSense_SMS.c **** *   CapSense_senseClkDividerVal[]: used to store the 
 128:.\Generated_Source\PSoC4/CapSense_SMS.c **** *    Analog Switch divider for all sensors.
 129:.\Generated_Source\PSoC4/CapSense_SMS.c **** *   CapSense_prescalersTuningDone - used to notify the Tuner GUI that 
 130:.\Generated_Source\PSoC4/CapSense_SMS.c **** *   the pre-scalers tuning  is done.
 131:.\Generated_Source\PSoC4/CapSense_SMS.c **** *
 132:.\Generated_Source\PSoC4/CapSense_SMS.c **** * Side Effects:
 133:.\Generated_Source\PSoC4/CapSense_SMS.c **** *  None
 134:.\Generated_Source\PSoC4/CapSense_SMS.c **** *
 135:.\Generated_Source\PSoC4/CapSense_SMS.c **** *******************************************************************************/
 136:.\Generated_Source\PSoC4/CapSense_SMS.c **** void CapSense_AutoTune(void)
 137:.\Generated_Source\PSoC4/CapSense_SMS.c **** {
  87              		.loc 1 137 0
  88              		.cfi_startproc
  89 0000 80B5     		push	{r7, lr}
  90              		.cfi_def_cfa_offset 8
  91              		.cfi_offset 7, -8
ARM GAS  C:\Users\TINYWI~1\AppData\Local\Temp\ccRSWiSw.s 			page 5


  92              		.cfi_offset 14, -4
  93 0002 82B0     		sub	sp, sp, #8
  94              		.cfi_def_cfa_offset 16
  95 0004 00AF     		add	r7, sp, #0
  96              		.cfi_def_cfa_register 7
 138:.\Generated_Source\PSoC4/CapSense_SMS.c **** 	uint32 curSensor;
 139:.\Generated_Source\PSoC4/CapSense_SMS.c ****     uint32 widget;
 140:.\Generated_Source\PSoC4/CapSense_SMS.c **** 
 141:.\Generated_Source\PSoC4/CapSense_SMS.c **** 	CapSense_config.totalScanslotsNum = CapSense_TOTAL_SCANSLOT_COUNT;
  97              		.loc 1 141 0
  98 0006 374B     		ldr	r3, .L8
  99 0008 0522     		mov	r2, #5
 100 000a 1A70     		strb	r2, [r3]
 142:.\Generated_Source\PSoC4/CapSense_SMS.c **** 	CapSense_config.totalWidgetsNum = CapSense_END_OF_WIDGETS_INDEX;
 101              		.loc 1 142 0
 102 000c 354B     		ldr	r3, .L8
 103 000e 0122     		mov	r2, #1
 104 0010 5A70     		strb	r2, [r3, #1]
 143:.\Generated_Source\PSoC4/CapSense_SMS.c **** 	CapSense_config.totalSensorsNum = CapSense_TOTAL_SENSOR_COUNT;
 105              		.loc 1 143 0
 106 0012 344B     		ldr	r3, .L8
 107 0014 0522     		mov	r2, #5
 108 0016 9A70     		strb	r2, [r3, #2]
 144:.\Generated_Source\PSoC4/CapSense_SMS.c **** 	
 145:.\Generated_Source\PSoC4/CapSense_SMS.c **** 	CapSense_config.hfclkFreq_MHz = CYDEV_BCLK__HFCLK__MHZ;
 109              		.loc 1 145 0
 110 0018 324B     		ldr	r3, .L8
 111 001a 1822     		mov	r2, #24
 112 001c DA80     		strh	r2, [r3, #6]
 146:.\Generated_Source\PSoC4/CapSense_SMS.c **** 	CapSense_config.sensetivitySeed = CapSense_SENSETIVITY_FACTOR;
 113              		.loc 1 146 0
 114 001e 314B     		ldr	r3, .L8
 115 0020 314A     		ldr	r2, .L8+4
 116 0022 9A80     		strh	r2, [r3, #4]
 147:.\Generated_Source\PSoC4/CapSense_SMS.c **** 	
 148:.\Generated_Source\PSoC4/CapSense_SMS.c ****     CapSense_config.pointers = &CapSense_configPointers;       
 117              		.loc 1 148 0
 118 0024 2F4B     		ldr	r3, .L8
 119 0026 314A     		ldr	r2, .L8+8
 120 0028 9A60     		str	r2, [r3, #8]
 149:.\Generated_Source\PSoC4/CapSense_SMS.c ****     
 150:.\Generated_Source\PSoC4/CapSense_SMS.c **** 	CapSense_SetAnalogSwitchesSrcDirect();
 121              		.loc 1 150 0
 122 002a FFF7FEFF 		bl	CapSense_SetAnalogSwitchesSrcDirect
 151:.\Generated_Source\PSoC4/CapSense_SMS.c ****     
 152:.\Generated_Source\PSoC4/CapSense_SMS.c ****     for(widget = 0u; widget < CapSense_config.totalWidgetsNum; widget++)
 123              		.loc 1 152 0
 124 002e 0023     		mov	r3, #0
 125 0030 3B60     		str	r3, [r7]
 126 0032 07E0     		b	.L2
 127              	.L3:
 153:.\Generated_Source\PSoC4/CapSense_SMS.c ****     {
 154:.\Generated_Source\PSoC4/CapSense_SMS.c ****         CapSense_widgetResolution[widget] = CapSense_CALIBRATION_RESOLUTION;
 128              		.loc 1 154 0 discriminator 2
 129 0034 2E4B     		ldr	r3, .L8+12
 130 0036 3A68     		ldr	r2, [r7]
 131 0038 9200     		lsl	r2, r2, #2
ARM GAS  C:\Users\TINYWI~1\AppData\Local\Temp\ccRSWiSw.s 			page 6


 132 003a 2E49     		ldr	r1, .L8+16
 133 003c D150     		str	r1, [r2, r3]
 152:.\Generated_Source\PSoC4/CapSense_SMS.c ****     for(widget = 0u; widget < CapSense_config.totalWidgetsNum; widget++)
 134              		.loc 1 152 0 discriminator 2
 135 003e 3B68     		ldr	r3, [r7]
 136 0040 0133     		add	r3, r3, #1
 137 0042 3B60     		str	r3, [r7]
 138              	.L2:
 152:.\Generated_Source\PSoC4/CapSense_SMS.c ****     for(widget = 0u; widget < CapSense_config.totalWidgetsNum; widget++)
 139              		.loc 1 152 0 is_stmt 0 discriminator 1
 140 0044 274B     		ldr	r3, .L8
 141 0046 5B78     		ldrb	r3, [r3, #1]
 142 0048 1A1C     		mov	r2, r3
 143 004a 3B68     		ldr	r3, [r7]
 144 004c 9A42     		cmp	r2, r3
 145 004e F1D8     		bhi	.L3
 155:.\Generated_Source\PSoC4/CapSense_SMS.c ****     }
 156:.\Generated_Source\PSoC4/CapSense_SMS.c **** 	
 157:.\Generated_Source\PSoC4/CapSense_SMS.c **** 
 158:.\Generated_Source\PSoC4/CapSense_SMS.c **** 	for(curSensor = 0u; curSensor < CapSense_TOTAL_SCANSLOT_COUNT; curSensor++)
 146              		.loc 1 158 0 is_stmt 1
 147 0050 0023     		mov	r3, #0
 148 0052 7B60     		str	r3, [r7, #4]
 149 0054 0CE0     		b	.L4
 150              	.L5:
 159:.\Generated_Source\PSoC4/CapSense_SMS.c ****     {
 160:.\Generated_Source\PSoC4/CapSense_SMS.c **** 		CapSense_senseClkDividerVal[curSensor] = CapSense_CALIBRATION_ASD;
 151              		.loc 1 160 0 discriminator 2
 152 0056 284A     		ldr	r2, .L8+20
 153 0058 7B68     		ldr	r3, [r7, #4]
 154 005a D318     		add	r3, r2, r3
 155 005c 0422     		mov	r2, #4
 156 005e 1A70     		strb	r2, [r3]
 161:.\Generated_Source\PSoC4/CapSense_SMS.c **** 		CapSense_sampleClkDividerVal[curSensor] = CapSense_CALIBRATION_MD;
 157              		.loc 1 161 0 discriminator 2
 158 0060 264A     		ldr	r2, .L8+24
 159 0062 7B68     		ldr	r3, [r7, #4]
 160 0064 D318     		add	r3, r2, r3
 161 0066 0222     		mov	r2, #2
 162 0068 1A70     		strb	r2, [r3]
 158:.\Generated_Source\PSoC4/CapSense_SMS.c **** 	for(curSensor = 0u; curSensor < CapSense_TOTAL_SCANSLOT_COUNT; curSensor++)
 163              		.loc 1 158 0 discriminator 2
 164 006a 7B68     		ldr	r3, [r7, #4]
 165 006c 0133     		add	r3, r3, #1
 166 006e 7B60     		str	r3, [r7, #4]
 167              	.L4:
 158:.\Generated_Source\PSoC4/CapSense_SMS.c **** 	for(curSensor = 0u; curSensor < CapSense_TOTAL_SCANSLOT_COUNT; curSensor++)
 168              		.loc 1 158 0 is_stmt 0 discriminator 1
 169 0070 7B68     		ldr	r3, [r7, #4]
 170 0072 042B     		cmp	r3, #4
 171 0074 EFD9     		bls	.L5
 162:.\Generated_Source\PSoC4/CapSense_SMS.c **** 	}
 163:.\Generated_Source\PSoC4/CapSense_SMS.c ****     
 164:.\Generated_Source\PSoC4/CapSense_SMS.c ****     CapSense_DisableBaselineIDAC();
 172              		.loc 1 164 0 is_stmt 1
 173 0076 FFF7FEFF 		bl	CapSense_DisableBaselineIDAC
 165:.\Generated_Source\PSoC4/CapSense_SMS.c **** 
ARM GAS  C:\Users\TINYWI~1\AppData\Local\Temp\ccRSWiSw.s 			page 7


 166:.\Generated_Source\PSoC4/CapSense_SMS.c ****     CalibrateSensors_P4_v2_20(&CapSense_config, CapSense_CAL_RAW_COUNT);
 174              		.loc 1 166 0
 175 007a 1A4A     		ldr	r2, .L8
 176 007c 204B     		ldr	r3, .L8+28
 177 007e 101C     		mov	r0, r2
 178 0080 191C     		mov	r1, r3
 179 0082 FFF7FEFF 		bl	CalibrateSensors_P4_v2_20
 167:.\Generated_Source\PSoC4/CapSense_SMS.c **** 
 168:.\Generated_Source\PSoC4/CapSense_SMS.c **** 	#if(0u != CapSense_TOTAL_CENTROIDS_COUNT) 
 169:.\Generated_Source\PSoC4/CapSense_SMS.c **** 		CapSense_NormalizeWidgets(CapSense_END_OF_WIDGETS_INDEX, CapSense_modulationIDAC);
 180              		.loc 1 169 0
 181 0086 1F4B     		ldr	r3, .L8+32
 182 0088 0120     		mov	r0, #1
 183 008a 191C     		mov	r1, r3
 184 008c FFF7FEFF 		bl	CapSense_NormalizeWidgets
 170:.\Generated_Source\PSoC4/CapSense_SMS.c **** 	#endif /* (0u != CapSense_TOTAL_CENTROIDS_COUNT)  */
 171:.\Generated_Source\PSoC4/CapSense_SMS.c **** 	
 172:.\Generated_Source\PSoC4/CapSense_SMS.c ****     TunePrescalers_P4_v2_20(&CapSense_config);
 185              		.loc 1 172 0
 186 0090 144B     		ldr	r3, .L8
 187 0092 181C     		mov	r0, r3
 188 0094 FFF7FEFF 		bl	TunePrescalers_P4_v2_20
 173:.\Generated_Source\PSoC4/CapSense_SMS.c **** 	
 174:.\Generated_Source\PSoC4/CapSense_SMS.c **** 	#if(CapSense_PRS_OPTIONS != CapSense__PRS_NONE)
 175:.\Generated_Source\PSoC4/CapSense_SMS.c **** 		CapSense_prescalersTuningDone = 1u;
 189              		.loc 1 175 0
 190 0098 1B4B     		ldr	r3, .L8+36
 191 009a 0122     		mov	r2, #1
 192 009c 1A70     		strb	r2, [r3]
 176:.\Generated_Source\PSoC4/CapSense_SMS.c **** 	#endif /* (CapSense_PRS_OPTIONS == CapSense__PRS_NONE) */
 177:.\Generated_Source\PSoC4/CapSense_SMS.c ****        
 178:.\Generated_Source\PSoC4/CapSense_SMS.c ****     CalibrateSensors_P4_v2_20(&CapSense_config, CapSense_CAL_RAW_COUNT);
 193              		.loc 1 178 0
 194 009e 114A     		ldr	r2, .L8
 195 00a0 174B     		ldr	r3, .L8+28
 196 00a2 101C     		mov	r0, r2
 197 00a4 191C     		mov	r1, r3
 198 00a6 FFF7FEFF 		bl	CalibrateSensors_P4_v2_20
 179:.\Generated_Source\PSoC4/CapSense_SMS.c **** 	#if(0u != CapSense_TOTAL_CENTROIDS_COUNT)
 180:.\Generated_Source\PSoC4/CapSense_SMS.c **** 		CapSense_NormalizeWidgets(CapSense_END_OF_WIDGETS_INDEX, CapSense_modulationIDAC);
 199              		.loc 1 180 0
 200 00aa 164B     		ldr	r3, .L8+32
 201 00ac 0120     		mov	r0, #1
 202 00ae 191C     		mov	r1, r3
 203 00b0 FFF7FEFF 		bl	CapSense_NormalizeWidgets
 181:.\Generated_Source\PSoC4/CapSense_SMS.c **** 	#endif /* (0u != CapSense_TOTAL_CENTROIDS_COUNT)  */
 182:.\Generated_Source\PSoC4/CapSense_SMS.c ****     TuneSensitivity_P4_v2_20(&CapSense_config);
 204              		.loc 1 182 0
 205 00b4 0B4B     		ldr	r3, .L8
 206 00b6 181C     		mov	r0, r3
 207 00b8 FFF7FEFF 		bl	TuneSensitivity_P4_v2_20
 183:.\Generated_Source\PSoC4/CapSense_SMS.c **** 	
 184:.\Generated_Source\PSoC4/CapSense_SMS.c **** 	CapSense_EnableBaselineIDAC(&CapSense_config);
 208              		.loc 1 184 0
 209 00bc 094B     		ldr	r3, .L8
 210 00be 181C     		mov	r0, r3
 211 00c0 FFF7FEFF 		bl	CapSense_EnableBaselineIDAC
ARM GAS  C:\Users\TINYWI~1\AppData\Local\Temp\ccRSWiSw.s 			page 8


 185:.\Generated_Source\PSoC4/CapSense_SMS.c ****     
 186:.\Generated_Source\PSoC4/CapSense_SMS.c ****     for(curSensor = 0u; curSensor < CapSense_TOTAL_SCANSLOT_COUNT; curSensor++)
 212              		.loc 1 186 0
 213 00c4 0023     		mov	r3, #0
 214 00c6 7B60     		str	r3, [r7, #4]
 215 00c8 06E0     		b	.L6
 216              	.L7:
 187:.\Generated_Source\PSoC4/CapSense_SMS.c ****     {
 188:.\Generated_Source\PSoC4/CapSense_SMS.c ****         CapSense_UpdateThresholds(curSensor);
 217              		.loc 1 188 0 discriminator 2
 218 00ca 7B68     		ldr	r3, [r7, #4]
 219 00cc 181C     		mov	r0, r3
 220 00ce FFF7FEFF 		bl	CapSense_UpdateThresholds
 186:.\Generated_Source\PSoC4/CapSense_SMS.c ****     for(curSensor = 0u; curSensor < CapSense_TOTAL_SCANSLOT_COUNT; curSensor++)
 221              		.loc 1 186 0 discriminator 2
 222 00d2 7B68     		ldr	r3, [r7, #4]
 223 00d4 0133     		add	r3, r3, #1
 224 00d6 7B60     		str	r3, [r7, #4]
 225              	.L6:
 186:.\Generated_Source\PSoC4/CapSense_SMS.c ****     for(curSensor = 0u; curSensor < CapSense_TOTAL_SCANSLOT_COUNT; curSensor++)
 226              		.loc 1 186 0 is_stmt 0 discriminator 1
 227 00d8 7B68     		ldr	r3, [r7, #4]
 228 00da 042B     		cmp	r3, #4
 229 00dc F5D9     		bls	.L7
 189:.\Generated_Source\PSoC4/CapSense_SMS.c ****     }
 190:.\Generated_Source\PSoC4/CapSense_SMS.c **** }
 230              		.loc 1 190 0 is_stmt 1
 231 00de BD46     		mov	sp, r7
 232 00e0 02B0     		add	sp, sp, #8
 233              		@ sp needed
 234 00e2 80BD     		pop	{r7, pc}
 235              	.L9:
 236              		.align	2
 237              	.L8:
 238 00e4 00000000 		.word	CapSense_config
 239 00e8 66020000 		.word	614
 240 00ec 00000000 		.word	CapSense_configPointers
 241 00f0 00000000 		.word	CapSense_widgetResolution
 242 00f4 0000FF0F 		.word	268369920
 243 00f8 00000000 		.word	CapSense_senseClkDividerVal
 244 00fc 00000000 		.word	CapSense_sampleClkDividerVal
 245 0100 9A0D0000 		.word	3482
 246 0104 00000000 		.word	CapSense_modulationIDAC
 247 0108 00000000 		.word	CapSense_prescalersTuningDone
 248              		.cfi_endproc
 249              	.LFE33:
 250              		.size	CapSense_AutoTune, .-CapSense_AutoTune
 251              		.section	.text.CapSense_UpdateThresholds,"ax",%progbits
 252              		.align	2
 253              		.global	CapSense_UpdateThresholds
 254              		.code	16
 255              		.thumb_func
 256              		.type	CapSense_UpdateThresholds, %function
 257              	CapSense_UpdateThresholds:
 258              	.LFB34:
 191:.\Generated_Source\PSoC4/CapSense_SMS.c **** 
 192:.\Generated_Source\PSoC4/CapSense_SMS.c **** 
ARM GAS  C:\Users\TINYWI~1\AppData\Local\Temp\ccRSWiSw.s 			page 9


 193:.\Generated_Source\PSoC4/CapSense_SMS.c **** /*******************************************************************************
 194:.\Generated_Source\PSoC4/CapSense_SMS.c **** * Function Name: CapSense_UpdateThresholds
 195:.\Generated_Source\PSoC4/CapSense_SMS.c **** ********************************************************************************
 196:.\Generated_Source\PSoC4/CapSense_SMS.c **** *
 197:.\Generated_Source\PSoC4/CapSense_SMS.c **** * Summary:
 198:.\Generated_Source\PSoC4/CapSense_SMS.c **** *  The API updates the Finger Threshold, Hysteresis, Noise Threshold, and 
 199:.\Generated_Source\PSoC4/CapSense_SMS.c **** *  Negative Noise Threshold in the AutoTuning (Smartsense) Mode.
 200:.\Generated_Source\PSoC4/CapSense_SMS.c **** *
 201:.\Generated_Source\PSoC4/CapSense_SMS.c **** * Parameters:
 202:.\Generated_Source\PSoC4/CapSense_SMS.c **** *  sensor: sensor number.
 203:.\Generated_Source\PSoC4/CapSense_SMS.c **** *
 204:.\Generated_Source\PSoC4/CapSense_SMS.c **** * Return:
 205:.\Generated_Source\PSoC4/CapSense_SMS.c **** *  None
 206:.\Generated_Source\PSoC4/CapSense_SMS.c **** *
 207:.\Generated_Source\PSoC4/CapSense_SMS.c **** * Global Variables:
 208:.\Generated_Source\PSoC4/CapSense_SMS.c **** *  CapSense_widgetNumber[] - contains widget Number for given sensor.
 209:.\Generated_Source\PSoC4/CapSense_SMS.c **** *  0 through 7 (sensor 0 is bit 0, sensor 1 is bit 1).
 210:.\Generated_Source\PSoC4/CapSense_SMS.c **** *  For other sensors the array element equals to 255. 
 211:.\Generated_Source\PSoC4/CapSense_SMS.c **** *  CapSense_numberOfSensors[widget] - Number of sensors in the widget.
 212:.\Generated_Source\PSoC4/CapSense_SMS.c **** *   CapSense_fingerThreshold[] - contains the level of signal for each sensor
 213:.\Generated_Source\PSoC4/CapSense_SMS.c **** *   that determines if a finger present on the sensor.
 214:.\Generated_Source\PSoC4/CapSense_SMS.c **** *   CapSense_negativeNoiseThreshold[] - negative Noise Threshold
 215:.\Generated_Source\PSoC4/CapSense_SMS.c **** *   CapSense_hysteresis[] - the array with hysteresis values.
 216:.\Generated_Source\PSoC4/CapSense_SMS.c **** *
 217:.\Generated_Source\PSoC4/CapSense_SMS.c **** * Side Effects:
 218:.\Generated_Source\PSoC4/CapSense_SMS.c **** *  None
 219:.\Generated_Source\PSoC4/CapSense_SMS.c **** *
 220:.\Generated_Source\PSoC4/CapSense_SMS.c **** *******************************************************************************/
 221:.\Generated_Source\PSoC4/CapSense_SMS.c **** void CapSense_UpdateThresholds(uint32 sensor)
 222:.\Generated_Source\PSoC4/CapSense_SMS.c **** {
 259              		.loc 1 222 0
 260              		.cfi_startproc
 261 0000 90B5     		push	{r4, r7, lr}
 262              		.cfi_def_cfa_offset 12
 263              		.cfi_offset 4, -12
 264              		.cfi_offset 7, -8
 265              		.cfi_offset 14, -4
 266 0002 87B0     		sub	sp, sp, #28
 267              		.cfi_def_cfa_offset 40
 268 0004 02AF     		add	r7, sp, #8
 269              		.cfi_def_cfa 7, 32
 270 0006 7860     		str	r0, [r7, #4]
 223:.\Generated_Source\PSoC4/CapSense_SMS.c **** 	uint8 fingerThreshold;
 224:.\Generated_Source\PSoC4/CapSense_SMS.c **** 	uint32 widget;
 225:.\Generated_Source\PSoC4/CapSense_SMS.c **** 	
 226:.\Generated_Source\PSoC4/CapSense_SMS.c **** 	widget = CapSense_widgetNumber[sensor];
 271              		.loc 1 226 0
 272 0008 314A     		ldr	r2, .L16
 273 000a 7B68     		ldr	r3, [r7, #4]
 274 000c D318     		add	r3, r2, r3
 275 000e 1B78     		ldrb	r3, [r3]
 276 0010 FB60     		str	r3, [r7, #12]
 227:.\Generated_Source\PSoC4/CapSense_SMS.c **** 
 228:.\Generated_Source\PSoC4/CapSense_SMS.c **** 	#if(0u != CapSense_FLEXIBLE_THRESHOLDS_EN)
 229:.\Generated_Source\PSoC4/CapSense_SMS.c **** 	    fingerThreshold = CapSense_fingerThreshold[widget];
 230:.\Generated_Source\PSoC4/CapSense_SMS.c ****         /* Update Threshold manually (flexible) */   
 231:.\Generated_Source\PSoC4/CapSense_SMS.c **** 		CapSense_noiseThreshold[widget] = (uint8)(fingerThreshold >> 1u);
ARM GAS  C:\Users\TINYWI~1\AppData\Local\Temp\ccRSWiSw.s 			page 10


 232:.\Generated_Source\PSoC4/CapSense_SMS.c **** 		CapSense_negativeNoiseThreshold[widget] = (uint8)(fingerThreshold >> 1u);
 233:.\Generated_Source\PSoC4/CapSense_SMS.c **** 		CapSense_hysteresis[widget] = (uint8)(fingerThreshold >> 3u);
 234:.\Generated_Source\PSoC4/CapSense_SMS.c **** 	#else
 235:.\Generated_Source\PSoC4/CapSense_SMS.c **** 		/* Calculate Finger Threshold and Noise Threshold with Smartsense (automatic) */ 	
 236:.\Generated_Source\PSoC4/CapSense_SMS.c **** 		CalculateThresholds_P4_v2_20(&CapSense_config, (uint8)sensor, CapSense_sensorRaw, (uint8)widget, 
 277              		.loc 1 236 0
 278 0012 7B68     		ldr	r3, [r7, #4]
 279 0014 D9B2     		uxtb	r1, r3
 280 0016 FB68     		ldr	r3, [r7, #12]
 281 0018 DBB2     		uxtb	r3, r3
 282 001a 2E48     		ldr	r0, .L16+4
 283 001c 2E4A     		ldr	r2, .L16+8
 284 001e 2F4C     		ldr	r4, .L16+12
 285 0020 0094     		str	r4, [sp]
 286 0022 2F4C     		ldr	r4, .L16+16
 287 0024 0194     		str	r4, [sp, #4]
 288 0026 FFF7FEFF 		bl	CalculateThresholds_P4_v2_20
 237:.\Generated_Source\PSoC4/CapSense_SMS.c **** 		
 238:.\Generated_Source\PSoC4/CapSense_SMS.c **** 	    fingerThreshold = CapSense_fingerThreshold[widget];
 289              		.loc 1 238 0
 290 002a 3B1C     		mov	r3, r7
 291 002c 0B33     		add	r3, r3, #11
 292 002e 2B49     		ldr	r1, .L16+12
 293 0030 FA68     		ldr	r2, [r7, #12]
 294 0032 8A18     		add	r2, r1, r2
 295 0034 1278     		ldrb	r2, [r2]
 296 0036 1A70     		strb	r2, [r3]
 239:.\Generated_Source\PSoC4/CapSense_SMS.c **** 		
 240:.\Generated_Source\PSoC4/CapSense_SMS.c **** 	    /* Update Threshold based on calculated with Smartsense (automatic) */
 241:.\Generated_Source\PSoC4/CapSense_SMS.c **** 		CapSense_negativeNoiseThreshold[widget] = CapSense_noiseThreshold[widget];
 297              		.loc 1 241 0
 298 0038 294A     		ldr	r2, .L16+16
 299 003a FB68     		ldr	r3, [r7, #12]
 300 003c D318     		add	r3, r2, r3
 301 003e 1A78     		ldrb	r2, [r3]
 302 0040 2849     		ldr	r1, .L16+20
 303 0042 FB68     		ldr	r3, [r7, #12]
 304 0044 CB18     		add	r3, r1, r3
 305 0046 1A70     		strb	r2, [r3]
 242:.\Generated_Source\PSoC4/CapSense_SMS.c ****         
 243:.\Generated_Source\PSoC4/CapSense_SMS.c **** 		if(fingerThreshold < CapSense_THRESHOLD_1)
 306              		.loc 1 243 0
 307 0048 3B1C     		mov	r3, r7
 308 004a 0B33     		add	r3, r3, #11
 309 004c 1B78     		ldrb	r3, [r3]
 310 004e DB2B     		cmp	r3, #219
 311 0050 09D8     		bhi	.L11
 244:.\Generated_Source\PSoC4/CapSense_SMS.c **** 		{
 245:.\Generated_Source\PSoC4/CapSense_SMS.c **** 			CapSense_hysteresis[widget] = (uint8)(fingerThreshold >> 3u);
 312              		.loc 1 245 0
 313 0052 3B1C     		mov	r3, r7
 314 0054 0B33     		add	r3, r3, #11
 315 0056 1B78     		ldrb	r3, [r3]
 316 0058 DB08     		lsr	r3, r3, #3
 317 005a DAB2     		uxtb	r2, r3
 318 005c 2249     		ldr	r1, .L16+24
 319 005e FB68     		ldr	r3, [r7, #12]
ARM GAS  C:\Users\TINYWI~1\AppData\Local\Temp\ccRSWiSw.s 			page 11


 320 0060 CB18     		add	r3, r1, r3
 321 0062 1A70     		strb	r2, [r3]
 322 0064 31E0     		b	.L10
 323              	.L11:
 246:.\Generated_Source\PSoC4/CapSense_SMS.c **** 		}
 247:.\Generated_Source\PSoC4/CapSense_SMS.c **** 		else if(fingerThreshold <  CapSense_THRESHOLD_2)
 324              		.loc 1 247 0
 325 0066 3B1C     		mov	r3, r7
 326 0068 0B33     		add	r3, r3, #11
 327 006a 1B78     		ldrb	r3, [r3]
 328 006c EC2B     		cmp	r3, #236
 329 006e 09D8     		bhi	.L13
 248:.\Generated_Source\PSoC4/CapSense_SMS.c **** 		{
 249:.\Generated_Source\PSoC4/CapSense_SMS.c **** 			CapSense_hysteresis[widget] = (uint8)(fingerThreshold >> 4u);
 330              		.loc 1 249 0
 331 0070 3B1C     		mov	r3, r7
 332 0072 0B33     		add	r3, r3, #11
 333 0074 1B78     		ldrb	r3, [r3]
 334 0076 1B09     		lsr	r3, r3, #4
 335 0078 DAB2     		uxtb	r2, r3
 336 007a 1B49     		ldr	r1, .L16+24
 337 007c FB68     		ldr	r3, [r7, #12]
 338 007e CB18     		add	r3, r1, r3
 339 0080 1A70     		strb	r2, [r3]
 340 0082 22E0     		b	.L10
 341              	.L13:
 250:.\Generated_Source\PSoC4/CapSense_SMS.c **** 		}
 251:.\Generated_Source\PSoC4/CapSense_SMS.c **** 		else if(fingerThreshold <  CapSense_THRESHOLD_3)
 342              		.loc 1 251 0
 343 0084 3B1C     		mov	r3, r7
 344 0086 0B33     		add	r3, r3, #11
 345 0088 1B78     		ldrb	r3, [r3]
 346 008a F42B     		cmp	r3, #244
 347 008c 09D8     		bhi	.L14
 252:.\Generated_Source\PSoC4/CapSense_SMS.c **** 		{
 253:.\Generated_Source\PSoC4/CapSense_SMS.c **** 			CapSense_hysteresis[widget] = (uint8)(fingerThreshold >> 5u);
 348              		.loc 1 253 0
 349 008e 3B1C     		mov	r3, r7
 350 0090 0B33     		add	r3, r3, #11
 351 0092 1B78     		ldrb	r3, [r3]
 352 0094 5B09     		lsr	r3, r3, #5
 353 0096 DAB2     		uxtb	r2, r3
 354 0098 1349     		ldr	r1, .L16+24
 355 009a FB68     		ldr	r3, [r7, #12]
 356 009c CB18     		add	r3, r1, r3
 357 009e 1A70     		strb	r2, [r3]
 358 00a0 13E0     		b	.L10
 359              	.L14:
 254:.\Generated_Source\PSoC4/CapSense_SMS.c **** 		}
 255:.\Generated_Source\PSoC4/CapSense_SMS.c **** 		else if(fingerThreshold <  CapSense_THRESHOLD_4)
 360              		.loc 1 255 0
 361 00a2 3B1C     		mov	r3, r7
 362 00a4 0B33     		add	r3, r3, #11
 363 00a6 1B78     		ldrb	r3, [r3]
 364 00a8 F92B     		cmp	r3, #249
 365 00aa 09D8     		bhi	.L15
 256:.\Generated_Source\PSoC4/CapSense_SMS.c **** 		{
ARM GAS  C:\Users\TINYWI~1\AppData\Local\Temp\ccRSWiSw.s 			page 12


 257:.\Generated_Source\PSoC4/CapSense_SMS.c **** 			CapSense_hysteresis[widget] = (uint8)(fingerThreshold >> 6u);
 366              		.loc 1 257 0
 367 00ac 3B1C     		mov	r3, r7
 368 00ae 0B33     		add	r3, r3, #11
 369 00b0 1B78     		ldrb	r3, [r3]
 370 00b2 9B09     		lsr	r3, r3, #6
 371 00b4 DAB2     		uxtb	r2, r3
 372 00b6 0C49     		ldr	r1, .L16+24
 373 00b8 FB68     		ldr	r3, [r7, #12]
 374 00ba CB18     		add	r3, r1, r3
 375 00bc 1A70     		strb	r2, [r3]
 376 00be 04E0     		b	.L10
 377              	.L15:
 258:.\Generated_Source\PSoC4/CapSense_SMS.c **** 		}
 259:.\Generated_Source\PSoC4/CapSense_SMS.c **** 		else
 260:.\Generated_Source\PSoC4/CapSense_SMS.c **** 		{
 261:.\Generated_Source\PSoC4/CapSense_SMS.c **** 			CapSense_hysteresis[widget] = 0u;
 378              		.loc 1 261 0
 379 00c0 094A     		ldr	r2, .L16+24
 380 00c2 FB68     		ldr	r3, [r7, #12]
 381 00c4 D318     		add	r3, r2, r3
 382 00c6 0022     		mov	r2, #0
 383 00c8 1A70     		strb	r2, [r3]
 384              	.L10:
 262:.\Generated_Source\PSoC4/CapSense_SMS.c **** 		}
 263:.\Generated_Source\PSoC4/CapSense_SMS.c **** 	#endif /* (0u != CapSense_FLEXIBLE_THRESHOLDS_EN)  */
 264:.\Generated_Source\PSoC4/CapSense_SMS.c **** }
 385              		.loc 1 264 0
 386 00ca BD46     		mov	sp, r7
 387 00cc 05B0     		add	sp, sp, #20
 388              		@ sp needed
 389 00ce 90BD     		pop	{r4, r7, pc}
 390              	.L17:
 391              		.align	2
 392              	.L16:
 393 00d0 00000000 		.word	CapSense_widgetNumber
 394 00d4 00000000 		.word	CapSense_config
 395 00d8 00000000 		.word	CapSense_sensorRaw
 396 00dc 00000000 		.word	CapSense_fingerThreshold
 397 00e0 00000000 		.word	CapSense_noiseThreshold
 398 00e4 00000000 		.word	CapSense_negativeNoiseThreshold
 399 00e8 00000000 		.word	CapSense_hysteresis
 400              		.cfi_endproc
 401              	.LFE34:
 402              		.size	CapSense_UpdateThresholds, .-CapSense_UpdateThresholds
 403              		.section	.text.CapSense_SetAnalogSwitchesSrcDirect,"ax",%progbits
 404              		.align	2
 405              		.global	CapSense_SetAnalogSwitchesSrcDirect
 406              		.code	16
 407              		.thumb_func
 408              		.type	CapSense_SetAnalogSwitchesSrcDirect, %function
 409              	CapSense_SetAnalogSwitchesSrcDirect:
 410              	.LFB35:
 265:.\Generated_Source\PSoC4/CapSense_SMS.c **** 
 266:.\Generated_Source\PSoC4/CapSense_SMS.c **** /*******************************************************************************
 267:.\Generated_Source\PSoC4/CapSense_SMS.c **** * Function Name: CapSense_SetAnalogSwitchesSrcDirect
 268:.\Generated_Source\PSoC4/CapSense_SMS.c **** ********************************************************************************
ARM GAS  C:\Users\TINYWI~1\AppData\Local\Temp\ccRSWiSw.s 			page 13


 269:.\Generated_Source\PSoC4/CapSense_SMS.c **** *
 270:.\Generated_Source\PSoC4/CapSense_SMS.c **** * Summary:
 271:.\Generated_Source\PSoC4/CapSense_SMS.c **** *  This API switches the charge clock source to prescaler. 
 272:.\Generated_Source\PSoC4/CapSense_SMS.c **** *
 273:.\Generated_Source\PSoC4/CapSense_SMS.c **** * Parameters:
 274:.\Generated_Source\PSoC4/CapSense_SMS.c **** *  None
 275:.\Generated_Source\PSoC4/CapSense_SMS.c **** *
 276:.\Generated_Source\PSoC4/CapSense_SMS.c **** * Return:
 277:.\Generated_Source\PSoC4/CapSense_SMS.c **** *  None
 278:.\Generated_Source\PSoC4/CapSense_SMS.c **** *
 279:.\Generated_Source\PSoC4/CapSense_SMS.c **** * Global Variables:
 280:.\Generated_Source\PSoC4/CapSense_SMS.c **** *  None
 281:.\Generated_Source\PSoC4/CapSense_SMS.c **** *
 282:.\Generated_Source\PSoC4/CapSense_SMS.c **** * Side Effects:
 283:.\Generated_Source\PSoC4/CapSense_SMS.c **** *  None
 284:.\Generated_Source\PSoC4/CapSense_SMS.c **** *
 285:.\Generated_Source\PSoC4/CapSense_SMS.c **** *******************************************************************************/
 286:.\Generated_Source\PSoC4/CapSense_SMS.c **** void CapSense_SetAnalogSwitchesSrcDirect(void)
 287:.\Generated_Source\PSoC4/CapSense_SMS.c **** {
 411              		.loc 1 287 0
 412              		.cfi_startproc
 413 0000 80B5     		push	{r7, lr}
 414              		.cfi_def_cfa_offset 8
 415              		.cfi_offset 7, -8
 416              		.cfi_offset 14, -4
 417 0002 00AF     		add	r7, sp, #0
 418              		.cfi_def_cfa_register 7
 288:.\Generated_Source\PSoC4/CapSense_SMS.c **** 	CapSense_CSD_CFG_REG &= ~(CapSense_CSD_CFG_PRS_SELECT);
 419              		.loc 1 288 0
 420 0004 034B     		ldr	r3, .L19
 421 0006 034A     		ldr	r2, .L19
 422 0008 1268     		ldr	r2, [r2]
 423 000a 4021     		mov	r1, #64
 424 000c 8A43     		bic	r2, r1
 425 000e 1A60     		str	r2, [r3]
 289:.\Generated_Source\PSoC4/CapSense_SMS.c **** }
 426              		.loc 1 289 0
 427 0010 BD46     		mov	sp, r7
 428              		@ sp needed
 429 0012 80BD     		pop	{r7, pc}
 430              	.L20:
 431              		.align	2
 432              	.L19:
 433 0014 04000840 		.word	1074266116
 434              		.cfi_endproc
 435              	.LFE35:
 436              		.size	CapSense_SetAnalogSwitchesSrcDirect, .-CapSense_SetAnalogSwitchesSrcDirect
 437              		.section	.text.CapSense_DisableBaselineIDAC,"ax",%progbits
 438              		.align	2
 439              		.global	CapSense_DisableBaselineIDAC
 440              		.code	16
 441              		.thumb_func
 442              		.type	CapSense_DisableBaselineIDAC, %function
 443              	CapSense_DisableBaselineIDAC:
 444              	.LFB36:
 290:.\Generated_Source\PSoC4/CapSense_SMS.c **** 
 291:.\Generated_Source\PSoC4/CapSense_SMS.c **** 
ARM GAS  C:\Users\TINYWI~1\AppData\Local\Temp\ccRSWiSw.s 			page 14


 292:.\Generated_Source\PSoC4/CapSense_SMS.c **** /*******************************************************************************
 293:.\Generated_Source\PSoC4/CapSense_SMS.c **** * Function Name: CapSense_DisableBaselineIDAC
 294:.\Generated_Source\PSoC4/CapSense_SMS.c **** ********************************************************************************
 295:.\Generated_Source\PSoC4/CapSense_SMS.c **** *
 296:.\Generated_Source\PSoC4/CapSense_SMS.c **** * Summary:
 297:.\Generated_Source\PSoC4/CapSense_SMS.c **** *  The API disables the Compensation IDAC. 
 298:.\Generated_Source\PSoC4/CapSense_SMS.c **** *
 299:.\Generated_Source\PSoC4/CapSense_SMS.c **** * Parameters:
 300:.\Generated_Source\PSoC4/CapSense_SMS.c **** *  None
 301:.\Generated_Source\PSoC4/CapSense_SMS.c **** *
 302:.\Generated_Source\PSoC4/CapSense_SMS.c **** * Return:
 303:.\Generated_Source\PSoC4/CapSense_SMS.c **** *  None
 304:.\Generated_Source\PSoC4/CapSense_SMS.c **** *
 305:.\Generated_Source\PSoC4/CapSense_SMS.c **** * Global Variables:
 306:.\Generated_Source\PSoC4/CapSense_SMS.c **** *  None
 307:.\Generated_Source\PSoC4/CapSense_SMS.c **** *
 308:.\Generated_Source\PSoC4/CapSense_SMS.c **** * Side Effects:
 309:.\Generated_Source\PSoC4/CapSense_SMS.c **** *  None
 310:.\Generated_Source\PSoC4/CapSense_SMS.c **** *
 311:.\Generated_Source\PSoC4/CapSense_SMS.c **** *******************************************************************************/
 312:.\Generated_Source\PSoC4/CapSense_SMS.c **** void CapSense_DisableBaselineIDAC(void)
 313:.\Generated_Source\PSoC4/CapSense_SMS.c **** {
 445              		.loc 1 313 0
 446              		.cfi_startproc
 447 0000 80B5     		push	{r7, lr}
 448              		.cfi_def_cfa_offset 8
 449              		.cfi_offset 7, -8
 450              		.cfi_offset 14, -4
 451 0002 82B0     		sub	sp, sp, #8
 452              		.cfi_def_cfa_offset 16
 453 0004 00AF     		add	r7, sp, #0
 454              		.cfi_def_cfa_register 7
 314:.\Generated_Source\PSoC4/CapSense_SMS.c **** 	uint32 newRegValue;
 315:.\Generated_Source\PSoC4/CapSense_SMS.c ****     
 316:.\Generated_Source\PSoC4/CapSense_SMS.c ****     newRegValue = CapSense_CSD_IDAC_REG;
 455              		.loc 1 316 0
 456 0006 094B     		ldr	r3, .L22
 457 0008 1B68     		ldr	r3, [r3]
 458 000a 7B60     		str	r3, [r7, #4]
 317:.\Generated_Source\PSoC4/CapSense_SMS.c ****     
 318:.\Generated_Source\PSoC4/CapSense_SMS.c ****     newRegValue &= ~(CapSense_CSD_IDAC1_MODE_MASK | CapSense_CSD_IDAC2_MODE_MASK);
 459              		.loc 1 318 0
 460 000c 7A68     		ldr	r2, [r7, #4]
 461 000e 084B     		ldr	r3, .L22+4
 462 0010 1340     		and	r3, r2
 463 0012 7B60     		str	r3, [r7, #4]
 319:.\Generated_Source\PSoC4/CapSense_SMS.c ****     newRegValue |= CapSense_CSD_IDAC1_MODE_VARIABLE;
 464              		.loc 1 319 0
 465 0014 7B68     		ldr	r3, [r7, #4]
 466 0016 8022     		mov	r2, #128
 467 0018 9200     		lsl	r2, r2, #2
 468 001a 1343     		orr	r3, r2
 469 001c 7B60     		str	r3, [r7, #4]
 320:.\Generated_Source\PSoC4/CapSense_SMS.c ****     
 321:.\Generated_Source\PSoC4/CapSense_SMS.c **** 	CapSense_CSD_IDAC_REG = newRegValue;
 470              		.loc 1 321 0
 471 001e 034B     		ldr	r3, .L22
ARM GAS  C:\Users\TINYWI~1\AppData\Local\Temp\ccRSWiSw.s 			page 15


 472 0020 7A68     		ldr	r2, [r7, #4]
 473 0022 1A60     		str	r2, [r3]
 322:.\Generated_Source\PSoC4/CapSense_SMS.c **** }
 474              		.loc 1 322 0
 475 0024 BD46     		mov	sp, r7
 476 0026 02B0     		add	sp, sp, #8
 477              		@ sp needed
 478 0028 80BD     		pop	{r7, pc}
 479              	.L23:
 480 002a C046     		.align	2
 481              	.L22:
 482 002c 08000840 		.word	1074266120
 483 0030 FFFCFFFC 		.word	-50332417
 484              		.cfi_endproc
 485              	.LFE36:
 486              		.size	CapSense_DisableBaselineIDAC, .-CapSense_DisableBaselineIDAC
 487              		.section	.text.CapSense_EnableBaselineIDAC,"ax",%progbits
 488              		.align	2
 489              		.global	CapSense_EnableBaselineIDAC
 490              		.code	16
 491              		.thumb_func
 492              		.type	CapSense_EnableBaselineIDAC, %function
 493              	CapSense_EnableBaselineIDAC:
 494              	.LFB37:
 323:.\Generated_Source\PSoC4/CapSense_SMS.c **** 
 324:.\Generated_Source\PSoC4/CapSense_SMS.c **** 
 325:.\Generated_Source\PSoC4/CapSense_SMS.c **** /*******************************************************************************
 326:.\Generated_Source\PSoC4/CapSense_SMS.c **** * Function Name: CapSense_EnableBaselineIDAC
 327:.\Generated_Source\PSoC4/CapSense_SMS.c **** ********************************************************************************
 328:.\Generated_Source\PSoC4/CapSense_SMS.c **** *
 329:.\Generated_Source\PSoC4/CapSense_SMS.c **** * Summary:
 330:.\Generated_Source\PSoC4/CapSense_SMS.c **** *  The API enables the Compensation IDAC. 
 331:.\Generated_Source\PSoC4/CapSense_SMS.c **** *
 332:.\Generated_Source\PSoC4/CapSense_SMS.c **** * Parameters:
 333:.\Generated_Source\PSoC4/CapSense_SMS.c **** *  None
 334:.\Generated_Source\PSoC4/CapSense_SMS.c **** *
 335:.\Generated_Source\PSoC4/CapSense_SMS.c **** * Return:
 336:.\Generated_Source\PSoC4/CapSense_SMS.c **** *  None
 337:.\Generated_Source\PSoC4/CapSense_SMS.c **** *
 338:.\Generated_Source\PSoC4/CapSense_SMS.c **** * Global Variables:
 339:.\Generated_Source\PSoC4/CapSense_SMS.c **** *  CapSense_compensationIDAC[] - used to store a 7-bit idac value for all the sensors.
 340:.\Generated_Source\PSoC4/CapSense_SMS.c **** *
 341:.\Generated_Source\PSoC4/CapSense_SMS.c **** * Side Effects:
 342:.\Generated_Source\PSoC4/CapSense_SMS.c **** *  None
 343:.\Generated_Source\PSoC4/CapSense_SMS.c **** *
 344:.\Generated_Source\PSoC4/CapSense_SMS.c **** *******************************************************************************/
 345:.\Generated_Source\PSoC4/CapSense_SMS.c **** void  CapSense_EnableBaselineIDAC(const CapSense_CONFIG_TYPE_P4_v2_20 *config)
 346:.\Generated_Source\PSoC4/CapSense_SMS.c **** {
 495              		.loc 1 346 0
 496              		.cfi_startproc
 497 0000 80B5     		push	{r7, lr}
 498              		.cfi_def_cfa_offset 8
 499              		.cfi_offset 7, -8
 500              		.cfi_offset 14, -4
 501 0002 84B0     		sub	sp, sp, #16
 502              		.cfi_def_cfa_offset 24
 503 0004 00AF     		add	r7, sp, #0
ARM GAS  C:\Users\TINYWI~1\AppData\Local\Temp\ccRSWiSw.s 			page 16


 504              		.cfi_def_cfa_register 7
 505 0006 7860     		str	r0, [r7, #4]
 347:.\Generated_Source\PSoC4/CapSense_SMS.c ****     uint32 curSensor;
 348:.\Generated_Source\PSoC4/CapSense_SMS.c ****     uint32 newRegValue;
 349:.\Generated_Source\PSoC4/CapSense_SMS.c **** 
 350:.\Generated_Source\PSoC4/CapSense_SMS.c ****     for(curSensor = 0u; curSensor < config->totalScanslotsNum; curSensor++)
 506              		.loc 1 350 0
 507 0008 0023     		mov	r3, #0
 508 000a FB60     		str	r3, [r7, #12]
 509 000c 17E0     		b	.L25
 510              	.L26:
 351:.\Generated_Source\PSoC4/CapSense_SMS.c ****     {
 352:.\Generated_Source\PSoC4/CapSense_SMS.c **** 		CapSense_compensationIDAC[curSensor] = CapSense_modulationIDAC[curSensor] / 2u;
 511              		.loc 1 352 0 discriminator 2
 512 000e 1A4A     		ldr	r2, .L27
 513 0010 FB68     		ldr	r3, [r7, #12]
 514 0012 D318     		add	r3, r2, r3
 515 0014 1B78     		ldrb	r3, [r3]
 516 0016 5B08     		lsr	r3, r3, #1
 517 0018 DAB2     		uxtb	r2, r3
 518 001a 1849     		ldr	r1, .L27+4
 519 001c FB68     		ldr	r3, [r7, #12]
 520 001e CB18     		add	r3, r1, r3
 521 0020 1A70     		strb	r2, [r3]
 353:.\Generated_Source\PSoC4/CapSense_SMS.c **** 	    CapSense_modulationIDAC[curSensor] = (CapSense_modulationIDAC[curSensor] + 1u) / 2u;
 522              		.loc 1 353 0 discriminator 2
 523 0022 154A     		ldr	r2, .L27
 524 0024 FB68     		ldr	r3, [r7, #12]
 525 0026 D318     		add	r3, r2, r3
 526 0028 1B78     		ldrb	r3, [r3]
 527 002a 0133     		add	r3, r3, #1
 528 002c 5B08     		lsr	r3, r3, #1
 529 002e DAB2     		uxtb	r2, r3
 530 0030 1149     		ldr	r1, .L27
 531 0032 FB68     		ldr	r3, [r7, #12]
 532 0034 CB18     		add	r3, r1, r3
 533 0036 1A70     		strb	r2, [r3]
 350:.\Generated_Source\PSoC4/CapSense_SMS.c ****     for(curSensor = 0u; curSensor < config->totalScanslotsNum; curSensor++)
 534              		.loc 1 350 0 discriminator 2
 535 0038 FB68     		ldr	r3, [r7, #12]
 536 003a 0133     		add	r3, r3, #1
 537 003c FB60     		str	r3, [r7, #12]
 538              	.L25:
 350:.\Generated_Source\PSoC4/CapSense_SMS.c ****     for(curSensor = 0u; curSensor < config->totalScanslotsNum; curSensor++)
 539              		.loc 1 350 0 is_stmt 0 discriminator 1
 540 003e 7B68     		ldr	r3, [r7, #4]
 541 0040 1B78     		ldrb	r3, [r3]
 542 0042 1A1C     		mov	r2, r3
 543 0044 FB68     		ldr	r3, [r7, #12]
 544 0046 9A42     		cmp	r2, r3
 545 0048 E1D8     		bhi	.L26
 354:.\Generated_Source\PSoC4/CapSense_SMS.c ****     }
 355:.\Generated_Source\PSoC4/CapSense_SMS.c **** 	
 356:.\Generated_Source\PSoC4/CapSense_SMS.c **** 	CyIntDisable(CapSense_ISR_NUMBER);
 546              		.loc 1 356 0 is_stmt 1
 547 004a 0F20     		mov	r0, #15
 548 004c FFF7FEFF 		bl	CyIntDisable
ARM GAS  C:\Users\TINYWI~1\AppData\Local\Temp\ccRSWiSw.s 			page 17


 357:.\Generated_Source\PSoC4/CapSense_SMS.c **** 	
 358:.\Generated_Source\PSoC4/CapSense_SMS.c **** 	newRegValue = CapSense_CSD_IDAC_REG;
 549              		.loc 1 358 0
 550 0050 0B4B     		ldr	r3, .L27+8
 551 0052 1B68     		ldr	r3, [r3]
 552 0054 BB60     		str	r3, [r7, #8]
 359:.\Generated_Source\PSoC4/CapSense_SMS.c ****     newRegValue &= ~(CapSense_CSD_IDAC1_MODE_MASK | CapSense_CSD_IDAC2_MODE_MASK);
 553              		.loc 1 359 0
 554 0056 BA68     		ldr	r2, [r7, #8]
 555 0058 0A4B     		ldr	r3, .L27+12
 556 005a 1340     		and	r3, r2
 557 005c BB60     		str	r3, [r7, #8]
 360:.\Generated_Source\PSoC4/CapSense_SMS.c ****     newRegValue |= (CapSense_CSD_IDAC1_MODE_VARIABLE | CapSense_CSD_IDAC2_MODE_FIXED);
 558              		.loc 1 360 0
 559 005e BB68     		ldr	r3, [r7, #8]
 560 0060 094A     		ldr	r2, .L27+16
 561 0062 1343     		orr	r3, r2
 562 0064 BB60     		str	r3, [r7, #8]
 361:.\Generated_Source\PSoC4/CapSense_SMS.c ****     CapSense_CSD_IDAC_REG = newRegValue;
 563              		.loc 1 361 0
 564 0066 064B     		ldr	r3, .L27+8
 565 0068 BA68     		ldr	r2, [r7, #8]
 566 006a 1A60     		str	r2, [r3]
 362:.\Generated_Source\PSoC4/CapSense_SMS.c **** 	
 363:.\Generated_Source\PSoC4/CapSense_SMS.c **** 	CyIntEnable(CapSense_ISR_NUMBER);
 567              		.loc 1 363 0
 568 006c 0F20     		mov	r0, #15
 569 006e FFF7FEFF 		bl	CyIntEnable
 364:.\Generated_Source\PSoC4/CapSense_SMS.c **** }
 570              		.loc 1 364 0
 571 0072 BD46     		mov	sp, r7
 572 0074 04B0     		add	sp, sp, #16
 573              		@ sp needed
 574 0076 80BD     		pop	{r7, pc}
 575              	.L28:
 576              		.align	2
 577              	.L27:
 578 0078 00000000 		.word	CapSense_modulationIDAC
 579 007c 00000000 		.word	CapSense_compensationIDAC
 580 0080 08000840 		.word	1074266120
 581 0084 FFFCFFFC 		.word	-50332417
 582 0088 00020001 		.word	16777728
 583              		.cfi_endproc
 584              	.LFE37:
 585              		.size	CapSense_EnableBaselineIDAC, .-CapSense_EnableBaselineIDAC
 586              		.section	.text.CapSense_SetSensitivity,"ax",%progbits
 587              		.align	2
 588              		.global	CapSense_SetSensitivity
 589              		.code	16
 590              		.thumb_func
 591              		.type	CapSense_SetSensitivity, %function
 592              	CapSense_SetSensitivity:
 593              	.LFB38:
 365:.\Generated_Source\PSoC4/CapSense_SMS.c **** 
 366:.\Generated_Source\PSoC4/CapSense_SMS.c **** 
 367:.\Generated_Source\PSoC4/CapSense_SMS.c **** /*******************************************************************************
 368:.\Generated_Source\PSoC4/CapSense_SMS.c **** * Function Name: CapSense_SetSensitivity
ARM GAS  C:\Users\TINYWI~1\AppData\Local\Temp\ccRSWiSw.s 			page 18


 369:.\Generated_Source\PSoC4/CapSense_SMS.c **** ********************************************************************************
 370:.\Generated_Source\PSoC4/CapSense_SMS.c **** *
 371:.\Generated_Source\PSoC4/CapSense_SMS.c **** * Summary:
 372:.\Generated_Source\PSoC4/CapSense_SMS.c **** *  This API sets the sensitivity value for the sensor. The sensitivity 
 373:.\Generated_Source\PSoC4/CapSense_SMS.c **** *  value is used during the auto-tuning algorithm executed as part of the CapSense_Start API.
 374:.\Generated_Source\PSoC4/CapSense_SMS.c **** *  This API is called by the application layer prior to calling the CapSense_Start API. 
 375:.\Generated_Source\PSoC4/CapSense_SMS.c **** *  Calling this API after execution of CapSense_Start API has no effect. 
 376:.\Generated_Source\PSoC4/CapSense_SMS.c **** *
 377:.\Generated_Source\PSoC4/CapSense_SMS.c **** * Parameters: 
 378:.\Generated_Source\PSoC4/CapSense_SMS.c **** *  sensor  Sensor index 
 379:.\Generated_Source\PSoC4/CapSense_SMS.c **** *  data    Sensitivity of the sensor. Possible values are below
 380:.\Generated_Source\PSoC4/CapSense_SMS.c **** *  1 - 0.1pf sensitivity
 381:.\Generated_Source\PSoC4/CapSense_SMS.c **** *  2 - 0.2pf sensitivity
 382:.\Generated_Source\PSoC4/CapSense_SMS.c **** *  3 - 0.3pf sensitivity
 383:.\Generated_Source\PSoC4/CapSense_SMS.c **** *  4 - 0.4pf sensitivity
 384:.\Generated_Source\PSoC4/CapSense_SMS.c **** *  5 - 0.5pf sensitivity
 385:.\Generated_Source\PSoC4/CapSense_SMS.c **** *  6 - 0.6pf sensitivity
 386:.\Generated_Source\PSoC4/CapSense_SMS.c **** *  7 - 0.7pf sensitivity
 387:.\Generated_Source\PSoC4/CapSense_SMS.c **** *  8 - 0.8pf sensitivity
 388:.\Generated_Source\PSoC4/CapSense_SMS.c **** *  9 - 0.9pf sensitivity
 389:.\Generated_Source\PSoC4/CapSense_SMS.c **** *  10 - 1.0pf sensitivity
 390:.\Generated_Source\PSoC4/CapSense_SMS.c **** *  All other values, set sensitivity to 1.0pf
 391:.\Generated_Source\PSoC4/CapSense_SMS.c **** *
 392:.\Generated_Source\PSoC4/CapSense_SMS.c **** *  Return Value:
 393:.\Generated_Source\PSoC4/CapSense_SMS.c **** *   None
 394:.\Generated_Source\PSoC4/CapSense_SMS.c **** *
 395:.\Generated_Source\PSoC4/CapSense_SMS.c **** * Global Variables:
 396:.\Generated_Source\PSoC4/CapSense_SMS.c **** * SMS_LIB_SensorSensitivity[] - This 8-bits array contains Sensitivity in the LSB nibble
 397:.\Generated_Source\PSoC4/CapSense_SMS.c **** *                                and Noise Reset Counter value in the MSB nibble.      
 398:.\Generated_Source\PSoC4/CapSense_SMS.c **** *
 399:.\Generated_Source\PSoC4/CapSense_SMS.c **** * Side Effects: 
 400:.\Generated_Source\PSoC4/CapSense_SMS.c **** *  None
 401:.\Generated_Source\PSoC4/CapSense_SMS.c **** *
 402:.\Generated_Source\PSoC4/CapSense_SMS.c **** *******************************************************************************/
 403:.\Generated_Source\PSoC4/CapSense_SMS.c **** void CapSense_SetSensitivity(uint32 sensor, uint32 value)
 404:.\Generated_Source\PSoC4/CapSense_SMS.c **** {
 594              		.loc 1 404 0
 595              		.cfi_startproc
 596 0000 80B5     		push	{r7, lr}
 597              		.cfi_def_cfa_offset 8
 598              		.cfi_offset 7, -8
 599              		.cfi_offset 14, -4
 600 0002 82B0     		sub	sp, sp, #8
 601              		.cfi_def_cfa_offset 16
 602 0004 00AF     		add	r7, sp, #0
 603              		.cfi_def_cfa_register 7
 604 0006 7860     		str	r0, [r7, #4]
 605 0008 3960     		str	r1, [r7]
 405:.\Generated_Source\PSoC4/CapSense_SMS.c **** 	if(value > 10u)
 606              		.loc 1 405 0
 607 000a 3B68     		ldr	r3, [r7]
 608 000c 0A2B     		cmp	r3, #10
 609 000e 01D9     		bls	.L30
 406:.\Generated_Source\PSoC4/CapSense_SMS.c **** 	{
 407:.\Generated_Source\PSoC4/CapSense_SMS.c **** 		value = 10u;
 610              		.loc 1 407 0
 611 0010 0A23     		mov	r3, #10
ARM GAS  C:\Users\TINYWI~1\AppData\Local\Temp\ccRSWiSw.s 			page 19


 612 0012 3B60     		str	r3, [r7]
 613              	.L30:
 408:.\Generated_Source\PSoC4/CapSense_SMS.c **** 	}
 409:.\Generated_Source\PSoC4/CapSense_SMS.c **** 	
 410:.\Generated_Source\PSoC4/CapSense_SMS.c ****     /* Clear SensorSensitivity value in LSB nibble */
 411:.\Generated_Source\PSoC4/CapSense_SMS.c **** 	SMS_LIB_SensorSensitivity[sensor] &= (uint8)~CapSense_SENSITIVITY_MASK;
 614              		.loc 1 411 0
 615 0014 0C4A     		ldr	r2, .L31
 616 0016 7B68     		ldr	r3, [r7, #4]
 617 0018 D318     		add	r3, r2, r3
 618 001a 1B78     		ldrb	r3, [r3]
 619 001c 0F22     		mov	r2, #15
 620 001e 9343     		bic	r3, r2
 621 0020 DAB2     		uxtb	r2, r3
 622 0022 0949     		ldr	r1, .L31
 623 0024 7B68     		ldr	r3, [r7, #4]
 624 0026 CB18     		add	r3, r1, r3
 625 0028 1A70     		strb	r2, [r3]
 412:.\Generated_Source\PSoC4/CapSense_SMS.c **** 	/* Set SensorSensitivity value in LSB nibble */
 413:.\Generated_Source\PSoC4/CapSense_SMS.c **** 	SMS_LIB_SensorSensitivity[sensor] |= (uint8)value;
 626              		.loc 1 413 0
 627 002a 074A     		ldr	r2, .L31
 628 002c 7B68     		ldr	r3, [r7, #4]
 629 002e D318     		add	r3, r2, r3
 630 0030 1A78     		ldrb	r2, [r3]
 631 0032 3B68     		ldr	r3, [r7]
 632 0034 DBB2     		uxtb	r3, r3
 633 0036 1343     		orr	r3, r2
 634 0038 DAB2     		uxtb	r2, r3
 635 003a 0349     		ldr	r1, .L31
 636 003c 7B68     		ldr	r3, [r7, #4]
 637 003e CB18     		add	r3, r1, r3
 638 0040 1A70     		strb	r2, [r3]
 414:.\Generated_Source\PSoC4/CapSense_SMS.c **** }
 639              		.loc 1 414 0
 640 0042 BD46     		mov	sp, r7
 641 0044 02B0     		add	sp, sp, #8
 642              		@ sp needed
 643 0046 80BD     		pop	{r7, pc}
 644              	.L32:
 645              		.align	2
 646              	.L31:
 647 0048 00000000 		.word	SMS_LIB_SensorSensitivity
 648              		.cfi_endproc
 649              	.LFE38:
 650              		.size	CapSense_SetSensitivity, .-CapSense_SetSensitivity
 651              		.section	.text.CapSense_GetSensitivityCoefficient,"ax",%progbits
 652              		.align	2
 653              		.global	CapSense_GetSensitivityCoefficient
 654              		.code	16
 655              		.thumb_func
 656              		.type	CapSense_GetSensitivityCoefficient, %function
 657              	CapSense_GetSensitivityCoefficient:
 658              	.LFB39:
 415:.\Generated_Source\PSoC4/CapSense_SMS.c **** 
 416:.\Generated_Source\PSoC4/CapSense_SMS.c **** 
 417:.\Generated_Source\PSoC4/CapSense_SMS.c **** /*******************************************************************************
ARM GAS  C:\Users\TINYWI~1\AppData\Local\Temp\ccRSWiSw.s 			page 20


 418:.\Generated_Source\PSoC4/CapSense_SMS.c **** * Function Name: CapSense_GetSensitivityCoefficient
 419:.\Generated_Source\PSoC4/CapSense_SMS.c **** ********************************************************************************
 420:.\Generated_Source\PSoC4/CapSense_SMS.c **** *
 421:.\Generated_Source\PSoC4/CapSense_SMS.c **** * Summary:
 422:.\Generated_Source\PSoC4/CapSense_SMS.c **** *  This API returns the K coefficient for the appropriate sensor. 
 423:.\Generated_Source\PSoC4/CapSense_SMS.c **** *
 424:.\Generated_Source\PSoC4/CapSense_SMS.c **** * Parameters: 
 425:.\Generated_Source\PSoC4/CapSense_SMS.c **** *  sensor:  Sensor index 
 426:.\Generated_Source\PSoC4/CapSense_SMS.c **** *
 427:.\Generated_Source\PSoC4/CapSense_SMS.c **** *  Return Value:
 428:.\Generated_Source\PSoC4/CapSense_SMS.c **** *   K - value for the appropriate sensor.
 429:.\Generated_Source\PSoC4/CapSense_SMS.c **** *
 430:.\Generated_Source\PSoC4/CapSense_SMS.c **** * Global Variables:
 431:.\Generated_Source\PSoC4/CapSense_SMS.c **** *  kValueTbl[] - This 8-bits array contains the K value for each sensor.
 432:.\Generated_Source\PSoC4/CapSense_SMS.c **** *
 433:.\Generated_Source\PSoC4/CapSense_SMS.c **** * Side Effects: 
 434:.\Generated_Source\PSoC4/CapSense_SMS.c **** *  None
 435:.\Generated_Source\PSoC4/CapSense_SMS.c **** *
 436:.\Generated_Source\PSoC4/CapSense_SMS.c **** *******************************************************************************/
 437:.\Generated_Source\PSoC4/CapSense_SMS.c **** uint8 CapSense_GetSensitivityCoefficient(uint32 sensor)
 438:.\Generated_Source\PSoC4/CapSense_SMS.c **** {
 659              		.loc 1 438 0
 660              		.cfi_startproc
 661 0000 80B5     		push	{r7, lr}
 662              		.cfi_def_cfa_offset 8
 663              		.cfi_offset 7, -8
 664              		.cfi_offset 14, -4
 665 0002 82B0     		sub	sp, sp, #8
 666              		.cfi_def_cfa_offset 16
 667 0004 00AF     		add	r7, sp, #0
 668              		.cfi_def_cfa_register 7
 669 0006 7860     		str	r0, [r7, #4]
 439:.\Generated_Source\PSoC4/CapSense_SMS.c **** 	return (kValueTbl[sensor]);
 670              		.loc 1 439 0
 671 0008 034A     		ldr	r2, .L35
 672 000a 7B68     		ldr	r3, [r7, #4]
 673 000c D318     		add	r3, r2, r3
 674 000e 1B78     		ldrb	r3, [r3]
 440:.\Generated_Source\PSoC4/CapSense_SMS.c **** }
 675              		.loc 1 440 0
 676 0010 181C     		mov	r0, r3
 677 0012 BD46     		mov	sp, r7
 678 0014 02B0     		add	sp, sp, #8
 679              		@ sp needed
 680 0016 80BD     		pop	{r7, pc}
 681              	.L36:
 682              		.align	2
 683              	.L35:
 684 0018 00000000 		.word	kValueTbl
 685              		.cfi_endproc
 686              	.LFE39:
 687              		.size	CapSense_GetSensitivityCoefficient, .-CapSense_GetSensitivityCoefficient
 688              		.section	.text.CapSense_GetNoiseEnvelope,"ax",%progbits
 689              		.align	2
 690              		.global	CapSense_GetNoiseEnvelope
 691              		.code	16
 692              		.thumb_func
ARM GAS  C:\Users\TINYWI~1\AppData\Local\Temp\ccRSWiSw.s 			page 21


 693              		.type	CapSense_GetNoiseEnvelope, %function
 694              	CapSense_GetNoiseEnvelope:
 695              	.LFB40:
 441:.\Generated_Source\PSoC4/CapSense_SMS.c **** 
 442:.\Generated_Source\PSoC4/CapSense_SMS.c **** 
 443:.\Generated_Source\PSoC4/CapSense_SMS.c **** /*******************************************************************************
 444:.\Generated_Source\PSoC4/CapSense_SMS.c **** * Function Name: CapSense_GetNoiseEnvelope
 445:.\Generated_Source\PSoC4/CapSense_SMS.c **** ********************************************************************************
 446:.\Generated_Source\PSoC4/CapSense_SMS.c **** *
 447:.\Generated_Source\PSoC4/CapSense_SMS.c **** * Summary:
 448:.\Generated_Source\PSoC4/CapSense_SMS.c **** *  This function returns the noise value of a
 449:.\Generated_Source\PSoC4/CapSense_SMS.c **** *  component.
 450:.\Generated_Source\PSoC4/CapSense_SMS.c **** *
 451:.\Generated_Source\PSoC4/CapSense_SMS.c **** * Parameters:
 452:.\Generated_Source\PSoC4/CapSense_SMS.c **** *  sensor - Sensor number.
 453:.\Generated_Source\PSoC4/CapSense_SMS.c **** *
 454:.\Generated_Source\PSoC4/CapSense_SMS.c **** * Return:
 455:.\Generated_Source\PSoC4/CapSense_SMS.c **** *  The noise envelope value of the sensor
 456:.\Generated_Source\PSoC4/CapSense_SMS.c **** *  indicated by argument.
 457:.\Generated_Source\PSoC4/CapSense_SMS.c **** *
 458:.\Generated_Source\PSoC4/CapSense_SMS.c **** * Global Variables:
 459:.\Generated_Source\PSoC4/CapSense_SMS.c **** *  baNoiseEnvelope[] - array with Noise Envelope.
 460:.\Generated_Source\PSoC4/CapSense_SMS.c **** *
 461:.\Generated_Source\PSoC4/CapSense_SMS.c **** * Side Effects:
 462:.\Generated_Source\PSoC4/CapSense_SMS.c **** *  None
 463:.\Generated_Source\PSoC4/CapSense_SMS.c **** *
 464:.\Generated_Source\PSoC4/CapSense_SMS.c **** *******************************************************************************/
 465:.\Generated_Source\PSoC4/CapSense_SMS.c **** uint16 CapSense_GetNoiseEnvelope(uint32 sensor)
 466:.\Generated_Source\PSoC4/CapSense_SMS.c **** {
 696              		.loc 1 466 0
 697              		.cfi_startproc
 698 0000 80B5     		push	{r7, lr}
 699              		.cfi_def_cfa_offset 8
 700              		.cfi_offset 7, -8
 701              		.cfi_offset 14, -4
 702 0002 82B0     		sub	sp, sp, #8
 703              		.cfi_def_cfa_offset 16
 704 0004 00AF     		add	r7, sp, #0
 705              		.cfi_def_cfa_register 7
 706 0006 7860     		str	r0, [r7, #4]
 467:.\Generated_Source\PSoC4/CapSense_SMS.c ****     return((uint16)((uint16)noiseEnvelopeTbl[sensor] << 1u) + 1u);
 707              		.loc 1 467 0
 708 0008 054A     		ldr	r2, .L39
 709 000a 7B68     		ldr	r3, [r7, #4]
 710 000c D318     		add	r3, r2, r3
 711 000e 1B78     		ldrb	r3, [r3]
 712 0010 DB18     		add	r3, r3, r3
 713 0012 9BB2     		uxth	r3, r3
 714 0014 0133     		add	r3, r3, #1
 715 0016 9BB2     		uxth	r3, r3
 468:.\Generated_Source\PSoC4/CapSense_SMS.c **** }
 716              		.loc 1 468 0
 717 0018 181C     		mov	r0, r3
 718 001a BD46     		mov	sp, r7
 719 001c 02B0     		add	sp, sp, #8
 720              		@ sp needed
 721 001e 80BD     		pop	{r7, pc}
ARM GAS  C:\Users\TINYWI~1\AppData\Local\Temp\ccRSWiSw.s 			page 22


 722              	.L40:
 723              		.align	2
 724              	.L39:
 725 0020 00000000 		.word	noiseEnvelopeTbl
 726              		.cfi_endproc
 727              	.LFE40:
 728              		.size	CapSense_GetNoiseEnvelope, .-CapSense_GetNoiseEnvelope
 729              		.global	__aeabi_uidiv
 730              		.section	.text.CapSense_GetNormalizedDiffCountData,"ax",%progbits
 731              		.align	2
 732              		.global	CapSense_GetNormalizedDiffCountData
 733              		.code	16
 734              		.thumb_func
 735              		.type	CapSense_GetNormalizedDiffCountData, %function
 736              	CapSense_GetNormalizedDiffCountData:
 737              	.LFB41:
 469:.\Generated_Source\PSoC4/CapSense_SMS.c **** 
 470:.\Generated_Source\PSoC4/CapSense_SMS.c **** 
 471:.\Generated_Source\PSoC4/CapSense_SMS.c **** /*******************************************************************************
 472:.\Generated_Source\PSoC4/CapSense_SMS.c **** * Function Name: CapSense_GetNormalizedDiffCountData
 473:.\Generated_Source\PSoC4/CapSense_SMS.c **** ********************************************************************************
 474:.\Generated_Source\PSoC4/CapSense_SMS.c **** *
 475:.\Generated_Source\PSoC4/CapSense_SMS.c **** * Summary:
 476:.\Generated_Source\PSoC4/CapSense_SMS.c **** *  This API returns normalized difference count data.
 477:.\Generated_Source\PSoC4/CapSense_SMS.c **** *
 478:.\Generated_Source\PSoC4/CapSense_SMS.c **** * Parameters:
 479:.\Generated_Source\PSoC4/CapSense_SMS.c **** *  sensor:  Sensor number.
 480:.\Generated_Source\PSoC4/CapSense_SMS.c **** *
 481:.\Generated_Source\PSoC4/CapSense_SMS.c **** * Return:
 482:.\Generated_Source\PSoC4/CapSense_SMS.c **** *  This API returns a normalized count value of the sensor indicated by the 
 483:.\Generated_Source\PSoC4/CapSense_SMS.c **** *  argument. 
 484:.\Generated_Source\PSoC4/CapSense_SMS.c **** *
 485:.\Generated_Source\PSoC4/CapSense_SMS.c **** * Global Variables:
 486:.\Generated_Source\PSoC4/CapSense_SMS.c **** *  CapSense_sensorSignal[] - array with difference counts for sensors
 487:.\Generated_Source\PSoC4/CapSense_SMS.c **** * 
 488:.\Generated_Source\PSoC4/CapSense_SMS.c **** * Side Effects:
 489:.\Generated_Source\PSoC4/CapSense_SMS.c **** *  None
 490:.\Generated_Source\PSoC4/CapSense_SMS.c **** *
 491:.\Generated_Source\PSoC4/CapSense_SMS.c **** *******************************************************************************/
 492:.\Generated_Source\PSoC4/CapSense_SMS.c **** uint16 CapSense_GetNormalizedDiffCountData(uint32 sensor)
 493:.\Generated_Source\PSoC4/CapSense_SMS.c **** {
 738              		.loc 1 493 0
 739              		.cfi_startproc
 740 0000 80B5     		push	{r7, lr}
 741              		.cfi_def_cfa_offset 8
 742              		.cfi_offset 7, -8
 743              		.cfi_offset 14, -4
 744 0002 82B0     		sub	sp, sp, #8
 745              		.cfi_def_cfa_offset 16
 746 0004 00AF     		add	r7, sp, #0
 747              		.cfi_def_cfa_register 7
 748 0006 7860     		str	r0, [r7, #4]
 494:.\Generated_Source\PSoC4/CapSense_SMS.c **** 	return (uint16)(((uint32)CapSense_sensorSignal[sensor] << 7u) / kValueTbl[sensor]);
 749              		.loc 1 494 0
 750 0008 094A     		ldr	r2, .L43
 751 000a 7B68     		ldr	r3, [r7, #4]
 752 000c D318     		add	r3, r2, r3
ARM GAS  C:\Users\TINYWI~1\AppData\Local\Temp\ccRSWiSw.s 			page 23


 753 000e 1B78     		ldrb	r3, [r3]
 754 0010 DA01     		lsl	r2, r3, #7
 755 0012 0849     		ldr	r1, .L43+4
 756 0014 7B68     		ldr	r3, [r7, #4]
 757 0016 CB18     		add	r3, r1, r3
 758 0018 1B78     		ldrb	r3, [r3]
 759 001a 101C     		mov	r0, r2
 760 001c 191C     		mov	r1, r3
 761 001e FFF7FEFF 		bl	__aeabi_uidiv
 762 0022 031C     		mov	r3, r0
 763 0024 9BB2     		uxth	r3, r3
 495:.\Generated_Source\PSoC4/CapSense_SMS.c **** }
 764              		.loc 1 495 0
 765 0026 181C     		mov	r0, r3
 766 0028 BD46     		mov	sp, r7
 767 002a 02B0     		add	sp, sp, #8
 768              		@ sp needed
 769 002c 80BD     		pop	{r7, pc}
 770              	.L44:
 771 002e C046     		.align	2
 772              	.L43:
 773 0030 00000000 		.word	CapSense_sensorSignal
 774 0034 00000000 		.word	kValueTbl
 775              		.cfi_endproc
 776              	.LFE41:
 777              		.size	CapSense_GetNormalizedDiffCountData, .-CapSense_GetNormalizedDiffCountData
 778              		.text
 779              	.Letext0:
 780              		.file 2 ".\\Generated_Source\\PSoC4\\cytypes.h"
 781              		.file 3 ".\\Generated_Source\\PSoC4\\CapSense_PVT.h"
 782              		.file 4 ".\\Generated_Source\\PSoC4\\CapSense.h"
 783              		.file 5 ".\\Generated_Source\\PSoC4\\CapSense_CSHL.h"