ARM GAS  C:\Users\IEUser\AppData\Local\Temp\cctak5Pf.s 			page 1


   1              		.cpu cortex-m0
   2              		.fpu softvfp
   3              		.eabi_attribute 20, 1
   4              		.eabi_attribute 21, 1
   5              		.eabi_attribute 23, 3
   6              		.eabi_attribute 24, 1
   7              		.eabi_attribute 25, 1
   8              		.eabi_attribute 26, 1
   9              		.eabi_attribute 30, 6
  10              		.eabi_attribute 34, 0
  11              		.eabi_attribute 18, 4
  12              		.code	16
  13              		.file	"CapSense_CSHL.c"
  14              		.text
  15              	.Ltext0:
  16              		.cfi_sections	.debug_frame
  17              		.comm	CapSense_rawFilterData1,10,4
  18              		.global	CapSense_sensorBaseline
  19              		.bss
  20              		.align	2
  21              		.type	CapSense_sensorBaseline, %object
  22              		.size	CapSense_sensorBaseline, 10
  23              	CapSense_sensorBaseline:
  24 0000 00000000 		.space	10
  24      00000000 
  24      0000
  25              		.global	CapSense_sensorBaselineLow
  26 000a 0000     		.align	2
  27              		.type	CapSense_sensorBaselineLow, %object
  28              		.size	CapSense_sensorBaselineLow, 5
  29              	CapSense_sensorBaselineLow:
  30 000c 00000000 		.space	5
  30      00
  31              		.global	CapSense_sensorSignal
  32 0011 000000   		.align	2
  33              		.type	CapSense_sensorSignal, %object
  34              		.size	CapSense_sensorSignal, 5
  35              	CapSense_sensorSignal:
  36 0014 00000000 		.space	5
  36      00
  37              		.global	CapSense_sensorOnMask
  38 0019 000000   		.align	2
  39              		.type	CapSense_sensorOnMask, %object
  40              		.size	CapSense_sensorOnMask, 1
  41              	CapSense_sensorOnMask:
  42 001c 00       		.space	1
  43              		.comm	CapSense_lowBaselineResetCnt,5,4
  44              		.global	CapSense_lowBaselineReset
  45              		.data
  46              		.align	2
  47              		.type	CapSense_lowBaselineReset, %object
  48              		.size	CapSense_lowBaselineReset, 5
  49              	CapSense_lowBaselineReset:
  50 0000 1E       		.byte	30
  51 0001 1E       		.byte	30
  52 0002 1E       		.byte	30
  53 0003 1E       		.byte	30
ARM GAS  C:\Users\IEUser\AppData\Local\Temp\cctak5Pf.s 			page 2


  54 0004 1E       		.byte	30
  55              		.global	CapSense_enableRawFilters
  56              		.type	CapSense_enableRawFilters, %object
  57              		.size	CapSense_enableRawFilters, 1
  58              	CapSense_enableRawFilters:
  59 0005 01       		.byte	1
  60              		.comm	CapSense_fingerThreshold,1,4
  61              		.comm	CapSense_noiseThreshold,1,4
  62              		.comm	CapSense_negativeNoiseThreshold,1,4
  63              		.comm	CapSense_hysteresis,1,4
  64              		.global	CapSense_debounce
  65 0006 0000     		.align	2
  66              		.type	CapSense_debounce, %object
  67              		.size	CapSense_debounce, 1
  68              	CapSense_debounce:
  69 0008 01       		.byte	1
  70              		.global	CapSense_rawDataIndex
  71              		.section	.rodata
  72              		.align	2
  73              		.type	CapSense_rawDataIndex, %object
  74              		.size	CapSense_rawDataIndex, 1
  75              	CapSense_rawDataIndex:
  76 0000 00       		.space	1
  77              		.global	CapSense_numberOfSensors
  78 0001 000000   		.align	2
  79              		.type	CapSense_numberOfSensors, %object
  80              		.size	CapSense_numberOfSensors, 1
  81              	CapSense_numberOfSensors:
  82 0004 05       		.byte	5
  83 0005 000000   		.align	2
  84              		.type	CapSense_centroidMult, %object
  85              		.size	CapSense_centroidMult, 2
  86              	CapSense_centroidMult:
  87 0008 C01F     		.short	8128
  88 000a 0000     		.data
  89 0009 000000   		.align	2
  90              		.type	CapSense_posFiltersMask, %object
  91              		.size	CapSense_posFiltersMask, 1
  92              	CapSense_posFiltersMask:
  93 000c 10       		.byte	16
  94 000d 000000   		.align	2
  95              		.type	CapSense_posFiltersData, %object
  96              		.size	CapSense_posFiltersData, 3
  97              	CapSense_posFiltersData:
  98 0010 01       		.byte	1
  99 0011 00       		.byte	0
 100 0012 00       		.byte	0
 101 0013 00       		.section	.text.CapSense_BaseInit,"ax",%progbits
 102              		.align	2
 103              		.global	CapSense_BaseInit
 104              		.code	16
 105              		.thumb_func
 106              		.type	CapSense_BaseInit, %function
 107              	CapSense_BaseInit:
 108              	.LFB33:
 109              		.file 1 ".\\Generated_Source\\PSoC4\\CapSense_CSHL.c"
   1:.\Generated_Source\PSoC4/CapSense_CSHL.c **** /*******************************************************************************
ARM GAS  C:\Users\IEUser\AppData\Local\Temp\cctak5Pf.s 			page 3


   2:.\Generated_Source\PSoC4/CapSense_CSHL.c **** * File Name: CapSense_CSHL.c
   3:.\Generated_Source\PSoC4/CapSense_CSHL.c **** * Version 2.20
   4:.\Generated_Source\PSoC4/CapSense_CSHL.c **** *
   5:.\Generated_Source\PSoC4/CapSense_CSHL.c **** * Description:
   6:.\Generated_Source\PSoC4/CapSense_CSHL.c **** *  This file provides the source code to the High Level APIs for the CapSesne
   7:.\Generated_Source\PSoC4/CapSense_CSHL.c **** *  CSD component.
   8:.\Generated_Source\PSoC4/CapSense_CSHL.c **** *
   9:.\Generated_Source\PSoC4/CapSense_CSHL.c **** * Note:
  10:.\Generated_Source\PSoC4/CapSense_CSHL.c **** *
  11:.\Generated_Source\PSoC4/CapSense_CSHL.c **** ********************************************************************************
  12:.\Generated_Source\PSoC4/CapSense_CSHL.c **** * Copyright 2014, Cypress Semiconductor Corporation.  All rights reserved.
  13:.\Generated_Source\PSoC4/CapSense_CSHL.c **** * You may use this file only in accordance with the license, terms, conditions,
  14:.\Generated_Source\PSoC4/CapSense_CSHL.c **** * disclaimers, and limitations in the end user license agreement accompanying
  15:.\Generated_Source\PSoC4/CapSense_CSHL.c **** * the software package with which this file was provided.
  16:.\Generated_Source\PSoC4/CapSense_CSHL.c **** *******************************************************************************/
  17:.\Generated_Source\PSoC4/CapSense_CSHL.c **** 
  18:.\Generated_Source\PSoC4/CapSense_CSHL.c **** #include "CapSense_CSHL.h"
  19:.\Generated_Source\PSoC4/CapSense_CSHL.c **** #include "CapSense_PVT.h"
  20:.\Generated_Source\PSoC4/CapSense_CSHL.c **** 
  21:.\Generated_Source\PSoC4/CapSense_CSHL.c **** /* SmartSense functions */
  22:.\Generated_Source\PSoC4/CapSense_CSHL.c **** #if (CapSense_TUNING_METHOD == CapSense__TUNING_AUTO)
  23:.\Generated_Source\PSoC4/CapSense_CSHL.c ****     extern void CapSense_UpdateThresholds(uint32 sensor);
  24:.\Generated_Source\PSoC4/CapSense_CSHL.c **** #endif /* (CapSense_TUNING_METHOD == CapSense__TUNING_AUTO) */
  25:.\Generated_Source\PSoC4/CapSense_CSHL.c **** 
  26:.\Generated_Source\PSoC4/CapSense_CSHL.c **** /* Storage of filters data */
  27:.\Generated_Source\PSoC4/CapSense_CSHL.c **** #if ( (0u != (CapSense_RAW_FILTER_MASK & CapSense_MEDIAN_FILTER)) || \
  28:.\Generated_Source\PSoC4/CapSense_CSHL.c ****       (0u != (CapSense_RAW_FILTER_MASK & CapSense_AVERAGING_FILTER)) )
  29:.\Generated_Source\PSoC4/CapSense_CSHL.c **** 
  30:.\Generated_Source\PSoC4/CapSense_CSHL.c ****     uint16 CapSense_rawFilterData1[CapSense_TOTAL_SENSOR_COUNT];
  31:.\Generated_Source\PSoC4/CapSense_CSHL.c ****     uint16 CapSense_rawFilterData2[CapSense_TOTAL_SENSOR_COUNT];
  32:.\Generated_Source\PSoC4/CapSense_CSHL.c **** 
  33:.\Generated_Source\PSoC4/CapSense_CSHL.c **** #elif ( (0u != (CapSense_RAW_FILTER_MASK & CapSense_IIR2_FILTER))   || \
  34:.\Generated_Source\PSoC4/CapSense_CSHL.c ****         (0u != (CapSense_RAW_FILTER_MASK & CapSense_IIR4_FILTER))   || \
  35:.\Generated_Source\PSoC4/CapSense_CSHL.c ****         (0u != (CapSense_RAW_FILTER_MASK & CapSense_JITTER_FILTER)) || \
  36:.\Generated_Source\PSoC4/CapSense_CSHL.c ****         (0u != (CapSense_RAW_FILTER_MASK & CapSense_IIR8_FILTER))   || \
  37:.\Generated_Source\PSoC4/CapSense_CSHL.c ****         (0u != (CapSense_RAW_FILTER_MASK & CapSense_IIR16_FILTER)) )
  38:.\Generated_Source\PSoC4/CapSense_CSHL.c ****         
  39:.\Generated_Source\PSoC4/CapSense_CSHL.c ****     uint16 CapSense_rawFilterData1[CapSense_TOTAL_SENSOR_COUNT];
  40:.\Generated_Source\PSoC4/CapSense_CSHL.c **** #endif  /* ( (CapSense_RAW_FILTER_MASK & CapSense_MEDIAN_FILTER) || \
  41:.\Generated_Source\PSoC4/CapSense_CSHL.c ****         *    (CapSense_RAW_FILTER_MASK & CapSense_AVERAGING_FILTER) )
  42:.\Generated_Source\PSoC4/CapSense_CSHL.c ****         */
  43:.\Generated_Source\PSoC4/CapSense_CSHL.c **** 
  44:.\Generated_Source\PSoC4/CapSense_CSHL.c **** extern uint16 CapSense_sensorRaw[CapSense_TOTAL_SENSOR_COUNT];
  45:.\Generated_Source\PSoC4/CapSense_CSHL.c **** extern uint8 CapSense_sensorEnableMask[CapSense_TOTAL_SENSOR_MASK];
  46:.\Generated_Source\PSoC4/CapSense_CSHL.c **** extern const uint8 CapSense_widgetNumber[CapSense_TOTAL_SENSOR_COUNT];
  47:.\Generated_Source\PSoC4/CapSense_CSHL.c **** 
  48:.\Generated_Source\PSoC4/CapSense_CSHL.c **** #if (CapSense_TUNING_METHOD != CapSense__TUNING_NONE)
  49:.\Generated_Source\PSoC4/CapSense_CSHL.c **** 	extern uint32 CapSense_widgetResolution[CapSense_RESOLUTIONS_TBL_SIZE];	
  50:.\Generated_Source\PSoC4/CapSense_CSHL.c **** #endif /* (CapSense_TUNING_METHOD != CapSense__TUNING_NONE) */
  51:.\Generated_Source\PSoC4/CapSense_CSHL.c **** 
  52:.\Generated_Source\PSoC4/CapSense_CSHL.c **** uint16 CapSense_sensorBaseline[CapSense_TOTAL_SENSOR_COUNT] = {0u};
  53:.\Generated_Source\PSoC4/CapSense_CSHL.c **** uint8 CapSense_sensorBaselineLow[CapSense_TOTAL_SENSOR_COUNT] = {0u};
  54:.\Generated_Source\PSoC4/CapSense_CSHL.c **** uint8 CapSense_sensorSignal[CapSense_TOTAL_SENSOR_COUNT] = {0u};
  55:.\Generated_Source\PSoC4/CapSense_CSHL.c **** uint8 CapSense_sensorOnMask[CapSense_TOTAL_SENSOR_MASK] = {0u};
  56:.\Generated_Source\PSoC4/CapSense_CSHL.c **** 
  57:.\Generated_Source\PSoC4/CapSense_CSHL.c **** uint8 CapSense_lowBaselineResetCnt[CapSense_TOTAL_SENSOR_COUNT];
  58:.\Generated_Source\PSoC4/CapSense_CSHL.c **** uint8 CapSense_lowBaselineReset[CapSense_TOTAL_SENSOR_COUNT] = {
ARM GAS  C:\Users\IEUser\AppData\Local\Temp\cctak5Pf.s 			page 4


  59:.\Generated_Source\PSoC4/CapSense_CSHL.c ****     30u, 30u, 30u, 30u, 30u, 
  60:.\Generated_Source\PSoC4/CapSense_CSHL.c **** };
  61:.\Generated_Source\PSoC4/CapSense_CSHL.c **** 
  62:.\Generated_Source\PSoC4/CapSense_CSHL.c **** 
  63:.\Generated_Source\PSoC4/CapSense_CSHL.c **** 
  64:.\Generated_Source\PSoC4/CapSense_CSHL.c **** #if (CapSense_TUNING_METHOD == CapSense__TUNING_AUTO)
  65:.\Generated_Source\PSoC4/CapSense_CSHL.c **** 	extern CapSense_CONFIG_TYPE_P4_v2_20 CapSense_config;
  66:.\Generated_Source\PSoC4/CapSense_CSHL.c **** #endif  /* (CapSense_TUNING_METHOD == CapSense__TUNING_AUTO) */
  67:.\Generated_Source\PSoC4/CapSense_CSHL.c **** 
  68:.\Generated_Source\PSoC4/CapSense_CSHL.c **** #if (CapSense_RAW_FILTER_MASK != 0u)
  69:.\Generated_Source\PSoC4/CapSense_CSHL.c **** uint8 CapSense_enableRawFilters = CapSense_RAW_FILTERS_ENABLED;
  70:.\Generated_Source\PSoC4/CapSense_CSHL.c **** #endif  /* (CapSense_RAW_FILTER_MASK != 0u) */
  71:.\Generated_Source\PSoC4/CapSense_CSHL.c **** 
  72:.\Generated_Source\PSoC4/CapSense_CSHL.c **** /* Generated by Customizer */
  73:.\Generated_Source\PSoC4/CapSense_CSHL.c **** uint8 CapSense_fingerThreshold[CapSense_THRESHOLD_TBL_SIZE];
  74:.\Generated_Source\PSoC4/CapSense_CSHL.c **** 
  75:.\Generated_Source\PSoC4/CapSense_CSHL.c **** uint8 CapSense_noiseThreshold[CapSense_THRESHOLD_TBL_SIZE];
  76:.\Generated_Source\PSoC4/CapSense_CSHL.c **** 
  77:.\Generated_Source\PSoC4/CapSense_CSHL.c **** uint8 CapSense_negativeNoiseThreshold[CapSense_THRESHOLD_TBL_SIZE];
  78:.\Generated_Source\PSoC4/CapSense_CSHL.c **** 
  79:.\Generated_Source\PSoC4/CapSense_CSHL.c **** uint8 CapSense_hysteresis[CapSense_WIDGET_PARAM_TBL_SIZE];
  80:.\Generated_Source\PSoC4/CapSense_CSHL.c **** 
  81:.\Generated_Source\PSoC4/CapSense_CSHL.c **** uint8 CapSense_debounce[] = {
  82:.\Generated_Source\PSoC4/CapSense_CSHL.c ****     1u, 
  83:.\Generated_Source\PSoC4/CapSense_CSHL.c **** };
  84:.\Generated_Source\PSoC4/CapSense_CSHL.c **** 
  85:.\Generated_Source\PSoC4/CapSense_CSHL.c **** const uint8 CapSense_rawDataIndex[] = {
  86:.\Generated_Source\PSoC4/CapSense_CSHL.c ****     0u, /* LinearSlider0__LS */
  87:.\Generated_Source\PSoC4/CapSense_CSHL.c **** };
  88:.\Generated_Source\PSoC4/CapSense_CSHL.c **** 
  89:.\Generated_Source\PSoC4/CapSense_CSHL.c **** const uint8 CapSense_numberOfSensors[] = {
  90:.\Generated_Source\PSoC4/CapSense_CSHL.c ****     5u, /* LinearSlider0__LS */
  91:.\Generated_Source\PSoC4/CapSense_CSHL.c **** };
  92:.\Generated_Source\PSoC4/CapSense_CSHL.c **** 
  93:.\Generated_Source\PSoC4/CapSense_CSHL.c **** static const uint16 CapSense_centroidMult[] = {
  94:.\Generated_Source\PSoC4/CapSense_CSHL.c ****     8128u, 
  95:.\Generated_Source\PSoC4/CapSense_CSHL.c **** };
  96:.\Generated_Source\PSoC4/CapSense_CSHL.c **** 
  97:.\Generated_Source\PSoC4/CapSense_CSHL.c **** static uint8 CapSense_posFiltersMask[] = {
  98:.\Generated_Source\PSoC4/CapSense_CSHL.c ****     0x10u, 
  99:.\Generated_Source\PSoC4/CapSense_CSHL.c **** };
 100:.\Generated_Source\PSoC4/CapSense_CSHL.c **** 
 101:.\Generated_Source\PSoC4/CapSense_CSHL.c **** static uint8 CapSense_posFiltersData[] = {
 102:.\Generated_Source\PSoC4/CapSense_CSHL.c ****     1u, 0u, 0u, 
 103:.\Generated_Source\PSoC4/CapSense_CSHL.c **** };
 104:.\Generated_Source\PSoC4/CapSense_CSHL.c **** 
 105:.\Generated_Source\PSoC4/CapSense_CSHL.c **** 
 106:.\Generated_Source\PSoC4/CapSense_CSHL.c **** 
 107:.\Generated_Source\PSoC4/CapSense_CSHL.c **** 
 108:.\Generated_Source\PSoC4/CapSense_CSHL.c **** /*******************************************************************************
 109:.\Generated_Source\PSoC4/CapSense_CSHL.c **** * Function Name: CapSense_BaseInit
 110:.\Generated_Source\PSoC4/CapSense_CSHL.c **** ********************************************************************************
 111:.\Generated_Source\PSoC4/CapSense_CSHL.c **** *
 112:.\Generated_Source\PSoC4/CapSense_CSHL.c **** * Summary:
 113:.\Generated_Source\PSoC4/CapSense_CSHL.c **** *  Loads the CapSense_sensorBaseline[sensor] array element with an 
 114:.\Generated_Source\PSoC4/CapSense_CSHL.c **** *  initial value which is equal to the raw count value. 
 115:.\Generated_Source\PSoC4/CapSense_CSHL.c **** *  Resets to zero CapSense_sensorBaselineLow[sensor] and 
ARM GAS  C:\Users\IEUser\AppData\Local\Temp\cctak5Pf.s 			page 5


 116:.\Generated_Source\PSoC4/CapSense_CSHL.c **** *  CapSense_sensorSignal[sensor] array element.
 117:.\Generated_Source\PSoC4/CapSense_CSHL.c **** *  Loads the CapSense_rawFilterData2[sensor] and 
 118:.\Generated_Source\PSoC4/CapSense_CSHL.c **** *  CapSense_rawFilterData2[sensor] array element with an 
 119:.\Generated_Source\PSoC4/CapSense_CSHL.c **** *  initial value which is equal to the raw count value if the raw data filter is enabled.
 120:.\Generated_Source\PSoC4/CapSense_CSHL.c **** *
 121:.\Generated_Source\PSoC4/CapSense_CSHL.c **** * Parameters:
 122:.\Generated_Source\PSoC4/CapSense_CSHL.c **** *  sensor:  Sensor number.
 123:.\Generated_Source\PSoC4/CapSense_CSHL.c **** *
 124:.\Generated_Source\PSoC4/CapSense_CSHL.c **** * Return:
 125:.\Generated_Source\PSoC4/CapSense_CSHL.c **** *  None
 126:.\Generated_Source\PSoC4/CapSense_CSHL.c **** *
 127:.\Generated_Source\PSoC4/CapSense_CSHL.c **** * Global Variables:
 128:.\Generated_Source\PSoC4/CapSense_CSHL.c **** *  CapSense_sensorBaseline[]    - used to store the baseline value.
 129:.\Generated_Source\PSoC4/CapSense_CSHL.c **** *  CapSense_sensorBaselineLow[] - used to store the fraction byte of 
 130:.\Generated_Source\PSoC4/CapSense_CSHL.c **** *  the baseline value.
 131:.\Generated_Source\PSoC4/CapSense_CSHL.c **** *  CapSense_sensorSignal[]      - used to store a difference between 
 132:.\Generated_Source\PSoC4/CapSense_CSHL.c **** *  the current value of raw data and the previous value of the baseline.
 133:.\Generated_Source\PSoC4/CapSense_CSHL.c **** *  CapSense_rawFilterData1[]    - used to store a previous sample of 
 134:.\Generated_Source\PSoC4/CapSense_CSHL.c **** *  any enabled raw data filter.
 135:.\Generated_Source\PSoC4/CapSense_CSHL.c **** *  CapSense_rawFilterData2[]    - used to store before a previous sample
 136:.\Generated_Source\PSoC4/CapSense_CSHL.c **** *  of the enabled raw data filter. Required only for median or average filters.
 137:.\Generated_Source\PSoC4/CapSense_CSHL.c **** *
 138:.\Generated_Source\PSoC4/CapSense_CSHL.c **** * Side Effects:
 139:.\Generated_Source\PSoC4/CapSense_CSHL.c **** *  None
 140:.\Generated_Source\PSoC4/CapSense_CSHL.c **** * 
 141:.\Generated_Source\PSoC4/CapSense_CSHL.c **** *******************************************************************************/
 142:.\Generated_Source\PSoC4/CapSense_CSHL.c **** void CapSense_BaseInit(uint32 sensor)
 143:.\Generated_Source\PSoC4/CapSense_CSHL.c **** {
 110              		.loc 1 143 0
 111              		.cfi_startproc
 112 0000 80B5     		push	{r7, lr}
 113              		.cfi_def_cfa_offset 8
 114              		.cfi_offset 7, -8
 115              		.cfi_offset 14, -4
 116 0002 82B0     		sub	sp, sp, #8
 117              		.cfi_def_cfa_offset 16
 118 0004 00AF     		add	r7, sp, #0
 119              		.cfi_def_cfa_register 7
 120 0006 7860     		str	r0, [r7, #4]
 144:.\Generated_Source\PSoC4/CapSense_CSHL.c ****     #if ((CapSense_TOTAL_BUTTONS_COUNT) || (CapSense_TOTAL_MATRIX_BUTTONS_COUNT) || \
 145:.\Generated_Source\PSoC4/CapSense_CSHL.c ****          (CapSense_TOTAL_GENERICS_COUNT))
 146:.\Generated_Source\PSoC4/CapSense_CSHL.c ****         uint8 widget = CapSense_widgetNumber[sensor];
 147:.\Generated_Source\PSoC4/CapSense_CSHL.c ****     #endif /* ((CapSense_TOTAL_MATRIX_BUTTONS_COUNT) || (CapSense_TOTAL_MATRIX_BUTTONS_COUNT)) */
 148:.\Generated_Source\PSoC4/CapSense_CSHL.c ****     
 149:.\Generated_Source\PSoC4/CapSense_CSHL.c ****     #if (CapSense_TOTAL_MATRIX_BUTTONS_COUNT)
 150:.\Generated_Source\PSoC4/CapSense_CSHL.c ****         uint8 debounceIndex;
 151:.\Generated_Source\PSoC4/CapSense_CSHL.c ****     #endif  /* (CapSense_TOTAL_MATRIX_BUTTONS_COUNT) */
 152:.\Generated_Source\PSoC4/CapSense_CSHL.c ****     
 153:.\Generated_Source\PSoC4/CapSense_CSHL.c ****     #if (CapSense_TOTAL_GENERICS_COUNT)
 154:.\Generated_Source\PSoC4/CapSense_CSHL.c ****         /* Exclude generic widget */
 155:.\Generated_Source\PSoC4/CapSense_CSHL.c ****         if(widget < CapSense_END_OF_WIDGETS_INDEX)
 156:.\Generated_Source\PSoC4/CapSense_CSHL.c ****         {
 157:.\Generated_Source\PSoC4/CapSense_CSHL.c ****     #endif  /* CapSense_TOTAL_GENERICS_COUNT */
 158:.\Generated_Source\PSoC4/CapSense_CSHL.c ****     
 159:.\Generated_Source\PSoC4/CapSense_CSHL.c ****     /* Initialize Baseline */
 160:.\Generated_Source\PSoC4/CapSense_CSHL.c ****     CapSense_sensorBaseline[sensor] = CapSense_sensorRaw[sensor];
 121              		.loc 1 160 0
ARM GAS  C:\Users\IEUser\AppData\Local\Temp\cctak5Pf.s 			page 6


 122 0008 0E4B     		ldr	r3, .L2
 123 000a 7A68     		ldr	r2, [r7, #4]
 124 000c 5200     		lsl	r2, r2, #1
 125 000e D15A     		ldrh	r1, [r2, r3]
 126 0010 0D4B     		ldr	r3, .L2+4
 127 0012 7A68     		ldr	r2, [r7, #4]
 128 0014 5200     		lsl	r2, r2, #1
 129 0016 D152     		strh	r1, [r2, r3]
 161:.\Generated_Source\PSoC4/CapSense_CSHL.c ****     CapSense_sensorBaselineLow[sensor] = 0u;
 130              		.loc 1 161 0
 131 0018 0C4A     		ldr	r2, .L2+8
 132 001a 7B68     		ldr	r3, [r7, #4]
 133 001c D318     		add	r3, r2, r3
 134 001e 0022     		mov	r2, #0
 135 0020 1A70     		strb	r2, [r3]
 162:.\Generated_Source\PSoC4/CapSense_CSHL.c ****     CapSense_sensorSignal[sensor] = 0u;
 136              		.loc 1 162 0
 137 0022 0B4A     		ldr	r2, .L2+12
 138 0024 7B68     		ldr	r3, [r7, #4]
 139 0026 D318     		add	r3, r2, r3
 140 0028 0022     		mov	r2, #0
 141 002a 1A70     		strb	r2, [r3]
 163:.\Generated_Source\PSoC4/CapSense_CSHL.c ****         
 164:.\Generated_Source\PSoC4/CapSense_CSHL.c **** 
 165:.\Generated_Source\PSoC4/CapSense_CSHL.c ****     
 166:.\Generated_Source\PSoC4/CapSense_CSHL.c ****     #if ((0u != (CapSense_RAW_FILTER_MASK & CapSense_MEDIAN_FILTER)) ||\
 167:.\Generated_Source\PSoC4/CapSense_CSHL.c ****          (0u != (CapSense_RAW_FILTER_MASK & CapSense_AVERAGING_FILTER)))
 168:.\Generated_Source\PSoC4/CapSense_CSHL.c **** 
 169:.\Generated_Source\PSoC4/CapSense_CSHL.c ****         CapSense_rawFilterData1[sensor] = CapSense_sensorRaw[sensor];
 170:.\Generated_Source\PSoC4/CapSense_CSHL.c ****         CapSense_rawFilterData2[sensor] = CapSense_sensorRaw[sensor];
 171:.\Generated_Source\PSoC4/CapSense_CSHL.c ****     
 172:.\Generated_Source\PSoC4/CapSense_CSHL.c ****     #elif ((CapSense_RAW_FILTER_MASK & CapSense_IIR2_FILTER) ||\
 173:.\Generated_Source\PSoC4/CapSense_CSHL.c ****            (CapSense_RAW_FILTER_MASK & CapSense_IIR4_FILTER) ||\
 174:.\Generated_Source\PSoC4/CapSense_CSHL.c ****            (CapSense_RAW_FILTER_MASK & CapSense_JITTER_FILTER) ||\
 175:.\Generated_Source\PSoC4/CapSense_CSHL.c ****            (CapSense_RAW_FILTER_MASK & CapSense_IIR8_FILTER) ||\
 176:.\Generated_Source\PSoC4/CapSense_CSHL.c ****            (CapSense_RAW_FILTER_MASK & CapSense_IIR16_FILTER))
 177:.\Generated_Source\PSoC4/CapSense_CSHL.c ****             
 178:.\Generated_Source\PSoC4/CapSense_CSHL.c ****         CapSense_rawFilterData1[sensor] = CapSense_sensorRaw[sensor];
 142              		.loc 1 178 0
 143 002c 054B     		ldr	r3, .L2
 144 002e 7A68     		ldr	r2, [r7, #4]
 145 0030 5200     		lsl	r2, r2, #1
 146 0032 D15A     		ldrh	r1, [r2, r3]
 147 0034 074B     		ldr	r3, .L2+16
 148 0036 7A68     		ldr	r2, [r7, #4]
 149 0038 5200     		lsl	r2, r2, #1
 150 003a D152     		strh	r1, [r2, r3]
 179:.\Generated_Source\PSoC4/CapSense_CSHL.c ****     
 180:.\Generated_Source\PSoC4/CapSense_CSHL.c ****     #else
 181:.\Generated_Source\PSoC4/CapSense_CSHL.c ****         /* No Raw filters */
 182:.\Generated_Source\PSoC4/CapSense_CSHL.c ****     #endif  /* ((CapSense_RAW_FILTER_MASK & CapSense_MEDIAN_FILTER) || \
 183:.\Generated_Source\PSoC4/CapSense_CSHL.c ****             *   (CapSense_RAW_FILTER_MASK & CapSense_AVERAGING_FILTER))
 184:.\Generated_Source\PSoC4/CapSense_CSHL.c ****             */
 185:.\Generated_Source\PSoC4/CapSense_CSHL.c ****     
 186:.\Generated_Source\PSoC4/CapSense_CSHL.c ****     #if (CapSense_TOTAL_GENERICS_COUNT)
 187:.\Generated_Source\PSoC4/CapSense_CSHL.c ****         /* Exclude generic widget */
 188:.\Generated_Source\PSoC4/CapSense_CSHL.c ****         }
ARM GAS  C:\Users\IEUser\AppData\Local\Temp\cctak5Pf.s 			page 7


 189:.\Generated_Source\PSoC4/CapSense_CSHL.c ****     #endif  /* CapSense_TOTAL_GENERICS_COUNT */
 190:.\Generated_Source\PSoC4/CapSense_CSHL.c **** }
 151              		.loc 1 190 0
 152 003c BD46     		mov	sp, r7
 153 003e 02B0     		add	sp, sp, #8
 154              		@ sp needed
 155 0040 80BD     		pop	{r7, pc}
 156              	.L3:
 157 0042 C046     		.align	2
 158              	.L2:
 159 0044 00000000 		.word	CapSense_sensorRaw
 160 0048 00000000 		.word	CapSense_sensorBaseline
 161 004c 00000000 		.word	CapSense_sensorBaselineLow
 162 0050 00000000 		.word	CapSense_sensorSignal
 163 0054 00000000 		.word	CapSense_rawFilterData1
 164              		.cfi_endproc
 165              	.LFE33:
 166              		.size	CapSense_BaseInit, .-CapSense_BaseInit
 167              		.section	.text.CapSense_InitializeSensorBaseline,"ax",%progbits
 168              		.align	2
 169              		.global	CapSense_InitializeSensorBaseline
 170              		.code	16
 171              		.thumb_func
 172              		.type	CapSense_InitializeSensorBaseline, %function
 173              	CapSense_InitializeSensorBaseline:
 174              	.LFB34:
 191:.\Generated_Source\PSoC4/CapSense_CSHL.c **** 
 192:.\Generated_Source\PSoC4/CapSense_CSHL.c **** 
 193:.\Generated_Source\PSoC4/CapSense_CSHL.c **** /*******************************************************************************
 194:.\Generated_Source\PSoC4/CapSense_CSHL.c **** * Function Name: CapSense_InitializeSensorBaseline
 195:.\Generated_Source\PSoC4/CapSense_CSHL.c **** ********************************************************************************
 196:.\Generated_Source\PSoC4/CapSense_CSHL.c **** *
 197:.\Generated_Source\PSoC4/CapSense_CSHL.c **** * Summary:
 198:.\Generated_Source\PSoC4/CapSense_CSHL.c **** *  Loads the CapSense_sensorBaseline[sensor] array element with an 
 199:.\Generated_Source\PSoC4/CapSense_CSHL.c **** *  initial value by scanning the selected sensor (one channel design) or a pair 
 200:.\Generated_Source\PSoC4/CapSense_CSHL.c **** *  of sensors (two channels designs). The raw count value is copied into the 
 201:.\Generated_Source\PSoC4/CapSense_CSHL.c **** *  baseline array for each sensor. The raw data filters are initialized if 
 202:.\Generated_Source\PSoC4/CapSense_CSHL.c **** *  enabled.
 203:.\Generated_Source\PSoC4/CapSense_CSHL.c **** *
 204:.\Generated_Source\PSoC4/CapSense_CSHL.c **** * Parameters:
 205:.\Generated_Source\PSoC4/CapSense_CSHL.c **** *  sensor:  Sensor number.
 206:.\Generated_Source\PSoC4/CapSense_CSHL.c **** *
 207:.\Generated_Source\PSoC4/CapSense_CSHL.c **** * Return:
 208:.\Generated_Source\PSoC4/CapSense_CSHL.c **** *  None
 209:.\Generated_Source\PSoC4/CapSense_CSHL.c **** *
 210:.\Generated_Source\PSoC4/CapSense_CSHL.c **** * Global Variables:
 211:.\Generated_Source\PSoC4/CapSense_CSHL.c **** *  None
 212:.\Generated_Source\PSoC4/CapSense_CSHL.c **** *
 213:.\Generated_Source\PSoC4/CapSense_CSHL.c **** * Side Effects:
 214:.\Generated_Source\PSoC4/CapSense_CSHL.c **** *  None
 215:.\Generated_Source\PSoC4/CapSense_CSHL.c **** * 
 216:.\Generated_Source\PSoC4/CapSense_CSHL.c **** *******************************************************************************/
 217:.\Generated_Source\PSoC4/CapSense_CSHL.c **** void CapSense_InitializeSensorBaseline(uint32 sensor)
 218:.\Generated_Source\PSoC4/CapSense_CSHL.c **** {
 175              		.loc 1 218 0
 176              		.cfi_startproc
 177 0000 80B5     		push	{r7, lr}
ARM GAS  C:\Users\IEUser\AppData\Local\Temp\cctak5Pf.s 			page 8


 178              		.cfi_def_cfa_offset 8
 179              		.cfi_offset 7, -8
 180              		.cfi_offset 14, -4
 181 0002 82B0     		sub	sp, sp, #8
 182              		.cfi_def_cfa_offset 16
 183 0004 00AF     		add	r7, sp, #0
 184              		.cfi_def_cfa_register 7
 185 0006 7860     		str	r0, [r7, #4]
 219:.\Generated_Source\PSoC4/CapSense_CSHL.c ****     /* Scan sensor */
 220:.\Generated_Source\PSoC4/CapSense_CSHL.c ****     CapSense_ScanSensor(sensor);
 186              		.loc 1 220 0
 187 0008 7B68     		ldr	r3, [r7, #4]
 188 000a 181C     		mov	r0, r3
 189 000c FFF7FEFF 		bl	CapSense_ScanSensor
 221:.\Generated_Source\PSoC4/CapSense_CSHL.c ****     while(CapSense_IsBusy() != 0u)
 190              		.loc 1 221 0
 191 0010 C046     		mov	r8, r8
 192              	.L5:
 193              		.loc 1 221 0 is_stmt 0 discriminator 1
 194 0012 FFF7FEFF 		bl	CapSense_IsBusy
 195 0016 031C     		mov	r3, r0
 196 0018 002B     		cmp	r3, #0
 197 001a FAD1     		bne	.L5
 222:.\Generated_Source\PSoC4/CapSense_CSHL.c ****     {
 223:.\Generated_Source\PSoC4/CapSense_CSHL.c ****         /* Wait while sensor is busy */
 224:.\Generated_Source\PSoC4/CapSense_CSHL.c ****     }
 225:.\Generated_Source\PSoC4/CapSense_CSHL.c ****     
 226:.\Generated_Source\PSoC4/CapSense_CSHL.c ****     /* Initialize Baseline, Signal and debounce counters */       
 227:.\Generated_Source\PSoC4/CapSense_CSHL.c ****     CapSense_BaseInit(sensor);
 198              		.loc 1 227 0 is_stmt 1
 199 001c 7B68     		ldr	r3, [r7, #4]
 200 001e 181C     		mov	r0, r3
 201 0020 FFF7FEFF 		bl	CapSense_BaseInit
 228:.\Generated_Source\PSoC4/CapSense_CSHL.c **** }
 202              		.loc 1 228 0
 203 0024 BD46     		mov	sp, r7
 204 0026 02B0     		add	sp, sp, #8
 205              		@ sp needed
 206 0028 80BD     		pop	{r7, pc}
 207              		.cfi_endproc
 208              	.LFE34:
 209              		.size	CapSense_InitializeSensorBaseline, .-CapSense_InitializeSensorBaseline
 210 002a C046     		.section	.text.CapSense_InitializeAllBaselines,"ax",%progbits
 211              		.align	2
 212              		.global	CapSense_InitializeAllBaselines
 213              		.code	16
 214              		.thumb_func
 215              		.type	CapSense_InitializeAllBaselines, %function
 216              	CapSense_InitializeAllBaselines:
 217              	.LFB35:
 229:.\Generated_Source\PSoC4/CapSense_CSHL.c **** 
 230:.\Generated_Source\PSoC4/CapSense_CSHL.c **** 
 231:.\Generated_Source\PSoC4/CapSense_CSHL.c **** /*******************************************************************************
 232:.\Generated_Source\PSoC4/CapSense_CSHL.c **** * Function Name: CapSense_InitializeAllBaselines
 233:.\Generated_Source\PSoC4/CapSense_CSHL.c **** ********************************************************************************
 234:.\Generated_Source\PSoC4/CapSense_CSHL.c **** *
 235:.\Generated_Source\PSoC4/CapSense_CSHL.c **** * Summary:
ARM GAS  C:\Users\IEUser\AppData\Local\Temp\cctak5Pf.s 			page 9


 236:.\Generated_Source\PSoC4/CapSense_CSHL.c **** *  Uses the CapSense_InitializeSensorBaseline function to load the 
 237:.\Generated_Source\PSoC4/CapSense_CSHL.c **** *  CapSense_sensorBaseline[] array with an initial values by scanning 
 238:.\Generated_Source\PSoC4/CapSense_CSHL.c **** *  all the sensors. The raw count values are copied into the baseline array for 
 239:.\Generated_Source\PSoC4/CapSense_CSHL.c **** *  all the sensors. The raw data filters are initialized if enabled.
 240:.\Generated_Source\PSoC4/CapSense_CSHL.c **** *
 241:.\Generated_Source\PSoC4/CapSense_CSHL.c **** * Parameters:
 242:.\Generated_Source\PSoC4/CapSense_CSHL.c **** *  None
 243:.\Generated_Source\PSoC4/CapSense_CSHL.c **** *
 244:.\Generated_Source\PSoC4/CapSense_CSHL.c **** * Return:
 245:.\Generated_Source\PSoC4/CapSense_CSHL.c **** *  None
 246:.\Generated_Source\PSoC4/CapSense_CSHL.c **** *
 247:.\Generated_Source\PSoC4/CapSense_CSHL.c **** * Global Variables:
 248:.\Generated_Source\PSoC4/CapSense_CSHL.c **** *  None
 249:.\Generated_Source\PSoC4/CapSense_CSHL.c **** *
 250:.\Generated_Source\PSoC4/CapSense_CSHL.c **** * Side Effects:
 251:.\Generated_Source\PSoC4/CapSense_CSHL.c **** *  None
 252:.\Generated_Source\PSoC4/CapSense_CSHL.c **** * 
 253:.\Generated_Source\PSoC4/CapSense_CSHL.c **** *******************************************************************************/
 254:.\Generated_Source\PSoC4/CapSense_CSHL.c **** void CapSense_InitializeAllBaselines(void)
 255:.\Generated_Source\PSoC4/CapSense_CSHL.c **** {
 218              		.loc 1 255 0
 219              		.cfi_startproc
 220 0000 80B5     		push	{r7, lr}
 221              		.cfi_def_cfa_offset 8
 222              		.cfi_offset 7, -8
 223              		.cfi_offset 14, -4
 224 0002 82B0     		sub	sp, sp, #8
 225              		.cfi_def_cfa_offset 16
 226 0004 00AF     		add	r7, sp, #0
 227              		.cfi_def_cfa_register 7
 256:.\Generated_Source\PSoC4/CapSense_CSHL.c ****     uint32 i;
 257:.\Generated_Source\PSoC4/CapSense_CSHL.c ****     
 258:.\Generated_Source\PSoC4/CapSense_CSHL.c **** 	for(i = 0u; i < CapSense_TOTAL_SCANSLOT_COUNT; i++)
 228              		.loc 1 258 0
 229 0006 0023     		mov	r3, #0
 230 0008 7B60     		str	r3, [r7, #4]
 231 000a 06E0     		b	.L7
 232              	.L8:
 259:.\Generated_Source\PSoC4/CapSense_CSHL.c **** 	{
 260:.\Generated_Source\PSoC4/CapSense_CSHL.c ****     	CapSense_InitializeSensorBaseline(i);
 233              		.loc 1 260 0 discriminator 2
 234 000c 7B68     		ldr	r3, [r7, #4]
 235 000e 181C     		mov	r0, r3
 236 0010 FFF7FEFF 		bl	CapSense_InitializeSensorBaseline
 258:.\Generated_Source\PSoC4/CapSense_CSHL.c **** 	for(i = 0u; i < CapSense_TOTAL_SCANSLOT_COUNT; i++)
 237              		.loc 1 258 0 discriminator 2
 238 0014 7B68     		ldr	r3, [r7, #4]
 239 0016 0133     		add	r3, r3, #1
 240 0018 7B60     		str	r3, [r7, #4]
 241              	.L7:
 258:.\Generated_Source\PSoC4/CapSense_CSHL.c **** 	for(i = 0u; i < CapSense_TOTAL_SCANSLOT_COUNT; i++)
 242              		.loc 1 258 0 is_stmt 0 discriminator 1
 243 001a 7B68     		ldr	r3, [r7, #4]
 244 001c 042B     		cmp	r3, #4
 245 001e F5D9     		bls	.L8
 261:.\Generated_Source\PSoC4/CapSense_CSHL.c **** 	}
 262:.\Generated_Source\PSoC4/CapSense_CSHL.c **** }
ARM GAS  C:\Users\IEUser\AppData\Local\Temp\cctak5Pf.s 			page 10


 246              		.loc 1 262 0 is_stmt 1
 247 0020 BD46     		mov	sp, r7
 248 0022 02B0     		add	sp, sp, #8
 249              		@ sp needed
 250 0024 80BD     		pop	{r7, pc}
 251              		.cfi_endproc
 252              	.LFE35:
 253              		.size	CapSense_InitializeAllBaselines, .-CapSense_InitializeAllBaselines
 254 0026 C046     		.section	.text.CapSense_InitializeEnabledBaselines,"ax",%progbits
 255              		.align	2
 256              		.global	CapSense_InitializeEnabledBaselines
 257              		.code	16
 258              		.thumb_func
 259              		.type	CapSense_InitializeEnabledBaselines, %function
 260              	CapSense_InitializeEnabledBaselines:
 261              	.LFB36:
 263:.\Generated_Source\PSoC4/CapSense_CSHL.c **** 
 264:.\Generated_Source\PSoC4/CapSense_CSHL.c **** 
 265:.\Generated_Source\PSoC4/CapSense_CSHL.c **** /*******************************************************************************
 266:.\Generated_Source\PSoC4/CapSense_CSHL.c **** * Function Name: CapSense_InitializeEnabledBaselines
 267:.\Generated_Source\PSoC4/CapSense_CSHL.c **** ********************************************************************************
 268:.\Generated_Source\PSoC4/CapSense_CSHL.c **** *
 269:.\Generated_Source\PSoC4/CapSense_CSHL.c **** * Summary:
 270:.\Generated_Source\PSoC4/CapSense_CSHL.c **** *  Scans all the enabled widgets and the raw count values are copied into the 
 271:.\Generated_Source\PSoC4/CapSense_CSHL.c **** *  baseline array for all the sensors enabled in the scanning process. The baselines 
 272:.\Generated_Source\PSoC4/CapSense_CSHL.c **** *  are initialized with zero values for sensors disabled from the scanning process. 
 273:.\Generated_Source\PSoC4/CapSense_CSHL.c **** *  The raw data filters are initialized if enabled.
 274:.\Generated_Source\PSoC4/CapSense_CSHL.c **** *
 275:.\Generated_Source\PSoC4/CapSense_CSHL.c **** * Parameters:
 276:.\Generated_Source\PSoC4/CapSense_CSHL.c **** *  None
 277:.\Generated_Source\PSoC4/CapSense_CSHL.c **** *
 278:.\Generated_Source\PSoC4/CapSense_CSHL.c **** * Return:
 279:.\Generated_Source\PSoC4/CapSense_CSHL.c **** *  None
 280:.\Generated_Source\PSoC4/CapSense_CSHL.c **** *
 281:.\Generated_Source\PSoC4/CapSense_CSHL.c **** * Global Variables:
 282:.\Generated_Source\PSoC4/CapSense_CSHL.c **** *  CapSense_sensorRaw[] - used to store the sensors raw data.
 283:.\Generated_Source\PSoC4/CapSense_CSHL.c **** *  CapSense_sensorEnableMask[ ] - used to store bit masks of the enabled sensors.
 284:.\Generated_Source\PSoC4/CapSense_CSHL.c **** *
 285:.\Generated_Source\PSoC4/CapSense_CSHL.c **** * Side Effects:
 286:.\Generated_Source\PSoC4/CapSense_CSHL.c **** *  None
 287:.\Generated_Source\PSoC4/CapSense_CSHL.c **** * 
 288:.\Generated_Source\PSoC4/CapSense_CSHL.c **** *******************************************************************************/
 289:.\Generated_Source\PSoC4/CapSense_CSHL.c **** void CapSense_InitializeEnabledBaselines(void)
 290:.\Generated_Source\PSoC4/CapSense_CSHL.c **** {
 262              		.loc 1 290 0
 263              		.cfi_startproc
 264 0000 80B5     		push	{r7, lr}
 265              		.cfi_def_cfa_offset 8
 266              		.cfi_offset 7, -8
 267              		.cfi_offset 14, -4
 268 0002 82B0     		sub	sp, sp, #8
 269              		.cfi_def_cfa_offset 16
 270 0004 00AF     		add	r7, sp, #0
 271              		.cfi_def_cfa_register 7
 291:.\Generated_Source\PSoC4/CapSense_CSHL.c ****     uint32 i;
 292:.\Generated_Source\PSoC4/CapSense_CSHL.c ****     uint32 isSensorEnabled;
 293:.\Generated_Source\PSoC4/CapSense_CSHL.c ****     
ARM GAS  C:\Users\IEUser\AppData\Local\Temp\cctak5Pf.s 			page 11


 294:.\Generated_Source\PSoC4/CapSense_CSHL.c ****     CapSense_ScanEnabledWidgets();
 272              		.loc 1 294 0
 273 0006 FFF7FEFF 		bl	CapSense_ScanEnabledWidgets
 295:.\Generated_Source\PSoC4/CapSense_CSHL.c ****     while(CapSense_IsBusy() != 0u)
 274              		.loc 1 295 0
 275 000a C046     		mov	r8, r8
 276              	.L10:
 277              		.loc 1 295 0 is_stmt 0 discriminator 1
 278 000c FFF7FEFF 		bl	CapSense_IsBusy
 279 0010 031C     		mov	r3, r0
 280 0012 002B     		cmp	r3, #0
 281 0014 FAD1     		bne	.L10
 296:.\Generated_Source\PSoC4/CapSense_CSHL.c ****     {
 297:.\Generated_Source\PSoC4/CapSense_CSHL.c ****         /* Wait while sensor is busy */
 298:.\Generated_Source\PSoC4/CapSense_CSHL.c ****     }
 299:.\Generated_Source\PSoC4/CapSense_CSHL.c ****     
 300:.\Generated_Source\PSoC4/CapSense_CSHL.c ****     for(i = 0u; i < CapSense_TOTAL_SENSOR_COUNT; i++)
 282              		.loc 1 300 0 is_stmt 1
 283 0016 0023     		mov	r3, #0
 284 0018 7B60     		str	r3, [r7, #4]
 285 001a 11E0     		b	.L11
 286              	.L13:
 301:.\Generated_Source\PSoC4/CapSense_CSHL.c ****     {
 302:.\Generated_Source\PSoC4/CapSense_CSHL.c ****         isSensorEnabled = CapSense_GetBitValue(CapSense_sensorEnableMask, i);
 287              		.loc 1 302 0
 288 001c 0B4A     		ldr	r2, .L14
 289 001e 7B68     		ldr	r3, [r7, #4]
 290 0020 101C     		mov	r0, r2
 291 0022 191C     		mov	r1, r3
 292 0024 FFF7FEFF 		bl	CapSense_GetBitValue
 293 0028 031C     		mov	r3, r0
 294 002a 3B60     		str	r3, [r7]
 303:.\Generated_Source\PSoC4/CapSense_CSHL.c ****         
 304:.\Generated_Source\PSoC4/CapSense_CSHL.c ****         /* Clear raw data if sensor is disabled from scanning process */
 305:.\Generated_Source\PSoC4/CapSense_CSHL.c ****         if(isSensorEnabled != 0u)
 295              		.loc 1 305 0
 296 002c 3B68     		ldr	r3, [r7]
 297 002e 002B     		cmp	r3, #0
 298 0030 03D0     		beq	.L12
 306:.\Generated_Source\PSoC4/CapSense_CSHL.c ****         {
 307:.\Generated_Source\PSoC4/CapSense_CSHL.c ****             /* Initialize baselines */
 308:.\Generated_Source\PSoC4/CapSense_CSHL.c ****             CapSense_BaseInit(i);
 299              		.loc 1 308 0
 300 0032 7B68     		ldr	r3, [r7, #4]
 301 0034 181C     		mov	r0, r3
 302 0036 FFF7FEFF 		bl	CapSense_BaseInit
 303              	.L12:
 300:.\Generated_Source\PSoC4/CapSense_CSHL.c ****     for(i = 0u; i < CapSense_TOTAL_SENSOR_COUNT; i++)
 304              		.loc 1 300 0
 305 003a 7B68     		ldr	r3, [r7, #4]
 306 003c 0133     		add	r3, r3, #1
 307 003e 7B60     		str	r3, [r7, #4]
 308              	.L11:
 300:.\Generated_Source\PSoC4/CapSense_CSHL.c ****     for(i = 0u; i < CapSense_TOTAL_SENSOR_COUNT; i++)
 309              		.loc 1 300 0 is_stmt 0 discriminator 1
 310 0040 7B68     		ldr	r3, [r7, #4]
 311 0042 042B     		cmp	r3, #4
ARM GAS  C:\Users\IEUser\AppData\Local\Temp\cctak5Pf.s 			page 12


 312 0044 EAD9     		bls	.L13
 309:.\Generated_Source\PSoC4/CapSense_CSHL.c ****         }
 310:.\Generated_Source\PSoC4/CapSense_CSHL.c ****     }
 311:.\Generated_Source\PSoC4/CapSense_CSHL.c **** }  
 313              		.loc 1 311 0 is_stmt 1
 314 0046 BD46     		mov	sp, r7
 315 0048 02B0     		add	sp, sp, #8
 316              		@ sp needed
 317 004a 80BD     		pop	{r7, pc}
 318              	.L15:
 319              		.align	2
 320              	.L14:
 321 004c 00000000 		.word	CapSense_sensorEnableMask
 322              		.cfi_endproc
 323              	.LFE36:
 324              		.size	CapSense_InitializeEnabledBaselines, .-CapSense_InitializeEnabledBaselines
 325              		.section	.text.CapSense_UpdateBaselineNoThreshold,"ax",%progbits
 326              		.align	2
 327              		.global	CapSense_UpdateBaselineNoThreshold
 328              		.code	16
 329              		.thumb_func
 330              		.type	CapSense_UpdateBaselineNoThreshold, %function
 331              	CapSense_UpdateBaselineNoThreshold:
 332              	.LFB37:
 312:.\Generated_Source\PSoC4/CapSense_CSHL.c **** 
 313:.\Generated_Source\PSoC4/CapSense_CSHL.c **** 
 314:.\Generated_Source\PSoC4/CapSense_CSHL.c **** /*******************************************************************************
 315:.\Generated_Source\PSoC4/CapSense_CSHL.c **** * Function Name: CapSense_UpdateBaselineNoThreshold
 316:.\Generated_Source\PSoC4/CapSense_CSHL.c **** ********************************************************************************
 317:.\Generated_Source\PSoC4/CapSense_CSHL.c **** *
 318:.\Generated_Source\PSoC4/CapSense_CSHL.c **** * Summary:
 319:.\Generated_Source\PSoC4/CapSense_CSHL.c **** *  Updates the CapSense_sensorBaseline[sensor] array element using the 
 320:.\Generated_Source\PSoC4/CapSense_CSHL.c **** *  LP filter with k = 256. The signal calculates the difference of count by 
 321:.\Generated_Source\PSoC4/CapSense_CSHL.c **** *  subtracting the previous baseline from the current raw count value and stores
 322:.\Generated_Source\PSoC4/CapSense_CSHL.c **** *  it in CapSense_sensorSignal[sensor]. 
 323:.\Generated_Source\PSoC4/CapSense_CSHL.c **** *  If the auto reset option is enabled, the baseline updated regards the noise threshold. 
 324:.\Generated_Source\PSoC4/CapSense_CSHL.c **** *  If the auto reset option is disabled, the baseline stops updating; baseline is loaded 
 325:.\Generated_Source\PSoC4/CapSense_CSHL.c **** *  with a raw count value if a signal is greater than zero and if signal is less 
 326:.\Generated_Source\PSoC4/CapSense_CSHL.c **** *  than noise threshold.
 327:.\Generated_Source\PSoC4/CapSense_CSHL.c **** *  Raw data filters are applied to the values if enabled before baseline 
 328:.\Generated_Source\PSoC4/CapSense_CSHL.c **** *  calculation.
 329:.\Generated_Source\PSoC4/CapSense_CSHL.c **** *
 330:.\Generated_Source\PSoC4/CapSense_CSHL.c **** *  This API does not update the thresholds in the Smartsense Mode.
 331:.\Generated_Source\PSoC4/CapSense_CSHL.c **** *
 332:.\Generated_Source\PSoC4/CapSense_CSHL.c **** * Parameters:
 333:.\Generated_Source\PSoC4/CapSense_CSHL.c **** *  sensor:  Sensor number.
 334:.\Generated_Source\PSoC4/CapSense_CSHL.c **** *
 335:.\Generated_Source\PSoC4/CapSense_CSHL.c **** * Return:
 336:.\Generated_Source\PSoC4/CapSense_CSHL.c **** *  None
 337:.\Generated_Source\PSoC4/CapSense_CSHL.c **** *
 338:.\Generated_Source\PSoC4/CapSense_CSHL.c **** * Global Variables:
 339:.\Generated_Source\PSoC4/CapSense_CSHL.c **** *  CapSense_widgetNumber[]  - stores widget numbers.
 340:.\Generated_Source\PSoC4/CapSense_CSHL.c **** *  CapSense_sensorBaseline[]    - used to store baseline value.
 341:.\Generated_Source\PSoC4/CapSense_CSHL.c **** *  CapSense_sensorBaselineLow[] - used to store fraction byte of 
 342:.\Generated_Source\PSoC4/CapSense_CSHL.c **** *  baseline value.
 343:.\Generated_Source\PSoC4/CapSense_CSHL.c **** *  CapSense_sensorSignal[]      - used to store difference between 
 344:.\Generated_Source\PSoC4/CapSense_CSHL.c **** *  current value of raw data and previous value of baseline.
ARM GAS  C:\Users\IEUser\AppData\Local\Temp\cctak5Pf.s 			page 13


 345:.\Generated_Source\PSoC4/CapSense_CSHL.c **** *  CapSense_rawFilterData1[]    - used to store previous sample of 
 346:.\Generated_Source\PSoC4/CapSense_CSHL.c **** *  any enabled raw data filter.
 347:.\Generated_Source\PSoC4/CapSense_CSHL.c **** *  CapSense_rawFilterData2[]    - used to store before previous sample
 348:.\Generated_Source\PSoC4/CapSense_CSHL.c **** *  of enabled raw data filter. Only required for median or average filters.
 349:.\Generated_Source\PSoC4/CapSense_CSHL.c **** * 
 350:.\Generated_Source\PSoC4/CapSense_CSHL.c **** * Side Effects:
 351:.\Generated_Source\PSoC4/CapSense_CSHL.c **** *  None
 352:.\Generated_Source\PSoC4/CapSense_CSHL.c **** * 
 353:.\Generated_Source\PSoC4/CapSense_CSHL.c **** *******************************************************************************/
 354:.\Generated_Source\PSoC4/CapSense_CSHL.c **** void CapSense_UpdateBaselineNoThreshold(uint32 sensor)
 355:.\Generated_Source\PSoC4/CapSense_CSHL.c **** {
 333              		.loc 1 355 0
 334              		.cfi_startproc
 335 0000 90B5     		push	{r4, r7, lr}
 336              		.cfi_def_cfa_offset 12
 337              		.cfi_offset 4, -12
 338              		.cfi_offset 7, -8
 339              		.cfi_offset 14, -4
 340 0002 87B0     		sub	sp, sp, #28
 341              		.cfi_def_cfa_offset 40
 342 0004 00AF     		add	r7, sp, #0
 343              		.cfi_def_cfa_register 7
 344 0006 7860     		str	r0, [r7, #4]
 356:.\Generated_Source\PSoC4/CapSense_CSHL.c ****     uint32 calc;
 357:.\Generated_Source\PSoC4/CapSense_CSHL.c **** 	uint32 sign;
 358:.\Generated_Source\PSoC4/CapSense_CSHL.c ****     uint16 tempRaw;
 359:.\Generated_Source\PSoC4/CapSense_CSHL.c ****     uint16 filteredRawData;
 360:.\Generated_Source\PSoC4/CapSense_CSHL.c ****     uint8 widget = CapSense_widgetNumber[sensor];
 345              		.loc 1 360 0
 346 0008 3B1C     		mov	r3, r7
 347 000a 0F33     		add	r3, r3, #15
 348 000c 7A49     		ldr	r1, .L29
 349 000e 7A68     		ldr	r2, [r7, #4]
 350 0010 8A18     		add	r2, r1, r2
 351 0012 1278     		ldrb	r2, [r2]
 352 0014 1A70     		strb	r2, [r3]
 361:.\Generated_Source\PSoC4/CapSense_CSHL.c ****     uint8 noiseThreshold = CapSense_noiseThreshold[widget];
 353              		.loc 1 361 0
 354 0016 3B1C     		mov	r3, r7
 355 0018 0F33     		add	r3, r3, #15
 356 001a 1A78     		ldrb	r2, [r3]
 357 001c 3B1C     		mov	r3, r7
 358 001e 0E33     		add	r3, r3, #14
 359 0020 7649     		ldr	r1, .L29+4
 360 0022 8A5C     		ldrb	r2, [r1, r2]
 361 0024 1A70     		strb	r2, [r3]
 362:.\Generated_Source\PSoC4/CapSense_CSHL.c ****     
 363:.\Generated_Source\PSoC4/CapSense_CSHL.c ****     #if (CapSense_TOTAL_GENERICS_COUNT)
 364:.\Generated_Source\PSoC4/CapSense_CSHL.c ****         /* Exclude generic widget */
 365:.\Generated_Source\PSoC4/CapSense_CSHL.c ****         if(widget < CapSense_END_OF_WIDGETS_INDEX)
 366:.\Generated_Source\PSoC4/CapSense_CSHL.c ****         {
 367:.\Generated_Source\PSoC4/CapSense_CSHL.c ****     #endif  /* CapSense_TOTAL_GENERICS_COUNT */
 368:.\Generated_Source\PSoC4/CapSense_CSHL.c ****     
 369:.\Generated_Source\PSoC4/CapSense_CSHL.c ****     filteredRawData = CapSense_sensorRaw[sensor];
 362              		.loc 1 369 0
 363 0026 3B1C     		mov	r3, r7
 364 0028 1033     		add	r3, r3, #16
ARM GAS  C:\Users\IEUser\AppData\Local\Temp\cctak5Pf.s 			page 14


 365 002a 754A     		ldr	r2, .L29+8
 366 002c 7968     		ldr	r1, [r7, #4]
 367 002e 4900     		lsl	r1, r1, #1
 368 0030 8A5A     		ldrh	r2, [r1, r2]
 369 0032 1A80     		strh	r2, [r3]
 370:.\Generated_Source\PSoC4/CapSense_CSHL.c **** 
 371:.\Generated_Source\PSoC4/CapSense_CSHL.c **** 	#if (CapSense_RAW_FILTER_MASK != 0u)
 372:.\Generated_Source\PSoC4/CapSense_CSHL.c **** 	if(CapSense_enableRawFilters != 0u)
 370              		.loc 1 372 0
 371 0034 734B     		ldr	r3, .L29+12
 372 0036 1B78     		ldrb	r3, [r3]
 373 0038 002B     		cmp	r3, #0
 374 003a 15D0     		beq	.L17
 373:.\Generated_Source\PSoC4/CapSense_CSHL.c **** 	{
 374:.\Generated_Source\PSoC4/CapSense_CSHL.c **** 		#if (CapSense_RAW_FILTER_MASK & CapSense_MEDIAN_FILTER)
 375:.\Generated_Source\PSoC4/CapSense_CSHL.c **** 			tempRaw = filteredRawData;
 376:.\Generated_Source\PSoC4/CapSense_CSHL.c **** 			filteredRawData = CapSense_MedianFilter(filteredRawData, CapSense_rawFilterData1[sensor], 
 377:.\Generated_Source\PSoC4/CapSense_CSHL.c **** 															CapSense_rawFilterData2[sensor]);
 378:.\Generated_Source\PSoC4/CapSense_CSHL.c **** 			CapSense_rawFilterData2[sensor] = CapSense_rawFilterData1[sensor];
 379:.\Generated_Source\PSoC4/CapSense_CSHL.c **** 			CapSense_rawFilterData1[sensor] = tempRaw;
 380:.\Generated_Source\PSoC4/CapSense_CSHL.c **** 			
 381:.\Generated_Source\PSoC4/CapSense_CSHL.c **** 		#elif (CapSense_RAW_FILTER_MASK & CapSense_AVERAGING_FILTER)
 382:.\Generated_Source\PSoC4/CapSense_CSHL.c **** 			tempRaw = filteredRawData;
 383:.\Generated_Source\PSoC4/CapSense_CSHL.c **** 			filteredRawData = CapSense_AveragingFilter(filteredRawData, CapSense_rawFilterData1[sensor],
 384:.\Generated_Source\PSoC4/CapSense_CSHL.c **** 															   CapSense_rawFilterData2[sensor]);
 385:.\Generated_Source\PSoC4/CapSense_CSHL.c **** 			CapSense_rawFilterData2[sensor] = CapSense_rawFilterData1[sensor];
 386:.\Generated_Source\PSoC4/CapSense_CSHL.c **** 			CapSense_rawFilterData1[sensor] = tempRaw;
 387:.\Generated_Source\PSoC4/CapSense_CSHL.c **** 			
 388:.\Generated_Source\PSoC4/CapSense_CSHL.c **** 		#elif (CapSense_RAW_FILTER_MASK & CapSense_IIR2_FILTER)
 389:.\Generated_Source\PSoC4/CapSense_CSHL.c **** 			filteredRawData = CapSense_IIR2Filter(filteredRawData, CapSense_rawFilterData1[sensor]);
 390:.\Generated_Source\PSoC4/CapSense_CSHL.c **** 			CapSense_rawFilterData1[sensor] = filteredRawData;
 391:.\Generated_Source\PSoC4/CapSense_CSHL.c **** 			
 392:.\Generated_Source\PSoC4/CapSense_CSHL.c **** 		#elif (CapSense_RAW_FILTER_MASK & CapSense_IIR4_FILTER)
 393:.\Generated_Source\PSoC4/CapSense_CSHL.c **** 			filteredRawData = CapSense_IIR4Filter(filteredRawData, CapSense_rawFilterData1[sensor]);
 375              		.loc 1 393 0
 376 003c 724B     		ldr	r3, .L29+16
 377 003e 7A68     		ldr	r2, [r7, #4]
 378 0040 5200     		lsl	r2, r2, #1
 379 0042 D35A     		ldrh	r3, [r2, r3]
 380 0044 3C1C     		mov	r4, r7
 381 0046 1034     		add	r4, r4, #16
 382 0048 3A1C     		mov	r2, r7
 383 004a 1032     		add	r2, r2, #16
 384 004c 1288     		ldrh	r2, [r2]
 385 004e 101C     		mov	r0, r2
 386 0050 191C     		mov	r1, r3
 387 0052 FFF7FEFF 		bl	CapSense_IIR4Filter
 388 0056 031C     		mov	r3, r0
 389 0058 2380     		strh	r3, [r4]
 394:.\Generated_Source\PSoC4/CapSense_CSHL.c **** 			CapSense_rawFilterData1[sensor] = filteredRawData;
 390              		.loc 1 394 0
 391 005a 6B4B     		ldr	r3, .L29+16
 392 005c 7A68     		ldr	r2, [r7, #4]
 393 005e 5200     		lsl	r2, r2, #1
 394 0060 391C     		mov	r1, r7
 395 0062 1031     		add	r1, r1, #16
 396 0064 0988     		ldrh	r1, [r1]
ARM GAS  C:\Users\IEUser\AppData\Local\Temp\cctak5Pf.s 			page 15


 397 0066 D152     		strh	r1, [r2, r3]
 398              	.L17:
 395:.\Generated_Source\PSoC4/CapSense_CSHL.c **** 				
 396:.\Generated_Source\PSoC4/CapSense_CSHL.c **** 		#elif (CapSense_RAW_FILTER_MASK & CapSense_JITTER_FILTER)
 397:.\Generated_Source\PSoC4/CapSense_CSHL.c **** 			filteredRawData = CapSense_JitterFilter(filteredRawData, CapSense_rawFilterData1[sensor]);
 398:.\Generated_Source\PSoC4/CapSense_CSHL.c **** 			CapSense_rawFilterData1[sensor] = filteredRawData;
 399:.\Generated_Source\PSoC4/CapSense_CSHL.c **** 			
 400:.\Generated_Source\PSoC4/CapSense_CSHL.c **** 		#elif (CapSense_RAW_FILTER_MASK & CapSense_IIR8_FILTER)
 401:.\Generated_Source\PSoC4/CapSense_CSHL.c **** 			filteredRawData = CapSense_IIR8Filter(filteredRawData, CapSense_rawFilterData1[sensor]);
 402:.\Generated_Source\PSoC4/CapSense_CSHL.c **** 			CapSense_rawFilterData1[sensor] = filteredRawData;
 403:.\Generated_Source\PSoC4/CapSense_CSHL.c **** 			
 404:.\Generated_Source\PSoC4/CapSense_CSHL.c **** 		#elif (CapSense_RAW_FILTER_MASK & CapSense_IIR16_FILTER)
 405:.\Generated_Source\PSoC4/CapSense_CSHL.c **** 			filteredRawData = CapSense_IIR16Filter(filteredRawData, CapSense_rawFilterData1[sensor]);
 406:.\Generated_Source\PSoC4/CapSense_CSHL.c **** 			CapSense_rawFilterData1[sensor] = filteredRawData;
 407:.\Generated_Source\PSoC4/CapSense_CSHL.c **** 			
 408:.\Generated_Source\PSoC4/CapSense_CSHL.c **** 		#else
 409:.\Generated_Source\PSoC4/CapSense_CSHL.c **** 			/* No Raw filters */
 410:.\Generated_Source\PSoC4/CapSense_CSHL.c **** 		#endif  /* (CapSense_RAW_FILTER_MASK & CapSense_MEDIAN_FILTER) */
 411:.\Generated_Source\PSoC4/CapSense_CSHL.c **** 	}
 412:.\Generated_Source\PSoC4/CapSense_CSHL.c **** 	#endif  /* (CapSense_RAW_FILTER_MASK != 0u) */
 413:.\Generated_Source\PSoC4/CapSense_CSHL.c **** 	
 414:.\Generated_Source\PSoC4/CapSense_CSHL.c **** 	#if (CapSense_TUNING_METHOD == CapSense__TUNING_AUTO)
 415:.\Generated_Source\PSoC4/CapSense_CSHL.c **** 	    MeasureNoiseEnvelope_P4_v2_20(&CapSense_config, (uint8)sensor, CapSense_sensorRaw);
 399              		.loc 1 415 0
 400 0068 7B68     		ldr	r3, [r7, #4]
 401 006a DAB2     		uxtb	r2, r3
 402 006c 6749     		ldr	r1, .L29+20
 403 006e 644B     		ldr	r3, .L29+8
 404 0070 081C     		mov	r0, r1
 405 0072 111C     		mov	r1, r2
 406 0074 1A1C     		mov	r2, r3
 407 0076 FFF7FEFF 		bl	MeasureNoiseEnvelope_P4_v2_20
 416:.\Generated_Source\PSoC4/CapSense_CSHL.c **** 	#endif /* (CapSense_TUNING_METHOD == CapSense__TUNING_AUTO) */
 417:.\Generated_Source\PSoC4/CapSense_CSHL.c **** 
 418:.\Generated_Source\PSoC4/CapSense_CSHL.c ****     /* Baseline calculation */
 419:.\Generated_Source\PSoC4/CapSense_CSHL.c ****     /* Calculate difference RawData[cur] - Baseline[prev] */
 420:.\Generated_Source\PSoC4/CapSense_CSHL.c ****     if(filteredRawData >= CapSense_sensorBaseline[sensor])
 408              		.loc 1 420 0
 409 007a 654B     		ldr	r3, .L29+24
 410 007c 7A68     		ldr	r2, [r7, #4]
 411 007e 5200     		lsl	r2, r2, #1
 412 0080 D35A     		ldrh	r3, [r2, r3]
 413 0082 3A1C     		mov	r2, r7
 414 0084 1032     		add	r2, r2, #16
 415 0086 1288     		ldrh	r2, [r2]
 416 0088 9A42     		cmp	r2, r3
 417 008a 12D3     		bcc	.L18
 421:.\Generated_Source\PSoC4/CapSense_CSHL.c ****     {
 422:.\Generated_Source\PSoC4/CapSense_CSHL.c **** 		CapSense_lowBaselineResetCnt[sensor] = 0u;	
 418              		.loc 1 422 0
 419 008c 614A     		ldr	r2, .L29+28
 420 008e 7B68     		ldr	r3, [r7, #4]
 421 0090 D318     		add	r3, r2, r3
 422 0092 0022     		mov	r2, #0
 423 0094 1A70     		strb	r2, [r3]
 423:.\Generated_Source\PSoC4/CapSense_CSHL.c ****         tempRaw = filteredRawData - CapSense_sensorBaseline[sensor];
 424              		.loc 1 423 0
ARM GAS  C:\Users\IEUser\AppData\Local\Temp\cctak5Pf.s 			page 16


 425 0096 5E4B     		ldr	r3, .L29+24
 426 0098 7A68     		ldr	r2, [r7, #4]
 427 009a 5200     		lsl	r2, r2, #1
 428 009c D25A     		ldrh	r2, [r2, r3]
 429 009e 3B1C     		mov	r3, r7
 430 00a0 1233     		add	r3, r3, #18
 431 00a2 391C     		mov	r1, r7
 432 00a4 1031     		add	r1, r1, #16
 433 00a6 0988     		ldrh	r1, [r1]
 434 00a8 8A1A     		sub	r2, r1, r2
 435 00aa 1A80     		strh	r2, [r3]
 424:.\Generated_Source\PSoC4/CapSense_CSHL.c ****         sign = 1u;    /* Positive difference - Calculate the Signal */
 436              		.loc 1 424 0
 437 00ac 0123     		mov	r3, #1
 438 00ae 7B61     		str	r3, [r7, #20]
 439 00b0 0CE0     		b	.L19
 440              	.L18:
 425:.\Generated_Source\PSoC4/CapSense_CSHL.c ****     }
 426:.\Generated_Source\PSoC4/CapSense_CSHL.c ****     else
 427:.\Generated_Source\PSoC4/CapSense_CSHL.c ****     {
 428:.\Generated_Source\PSoC4/CapSense_CSHL.c ****         tempRaw = CapSense_sensorBaseline[sensor] - filteredRawData;
 441              		.loc 1 428 0
 442 00b2 574B     		ldr	r3, .L29+24
 443 00b4 7A68     		ldr	r2, [r7, #4]
 444 00b6 5200     		lsl	r2, r2, #1
 445 00b8 D15A     		ldrh	r1, [r2, r3]
 446 00ba 3B1C     		mov	r3, r7
 447 00bc 1233     		add	r3, r3, #18
 448 00be 3A1C     		mov	r2, r7
 449 00c0 1032     		add	r2, r2, #16
 450 00c2 1288     		ldrh	r2, [r2]
 451 00c4 8A1A     		sub	r2, r1, r2
 452 00c6 1A80     		strh	r2, [r3]
 429:.\Generated_Source\PSoC4/CapSense_CSHL.c ****         sign = 0u;    /* Negative difference - Do NOT calculate the Signal */
 453              		.loc 1 429 0
 454 00c8 0023     		mov	r3, #0
 455 00ca 7B61     		str	r3, [r7, #20]
 456              	.L19:
 430:.\Generated_Source\PSoC4/CapSense_CSHL.c ****     }
 431:.\Generated_Source\PSoC4/CapSense_CSHL.c **** 
 432:.\Generated_Source\PSoC4/CapSense_CSHL.c **** 	#if (CapSense_TUNING_METHOD != CapSense__TUNING_NONE)
 433:.\Generated_Source\PSoC4/CapSense_CSHL.c **** 	if((sign == 0u) && (tempRaw > (uint16) CapSense_negativeNoiseThreshold[widget]))
 457              		.loc 1 433 0
 458 00cc 7B69     		ldr	r3, [r7, #20]
 459 00ce 002B     		cmp	r3, #0
 460 00d0 28D1     		bne	.L20
 461              		.loc 1 433 0 is_stmt 0 discriminator 1
 462 00d2 3B1C     		mov	r3, r7
 463 00d4 0F33     		add	r3, r3, #15
 464 00d6 1B78     		ldrb	r3, [r3]
 465 00d8 4F4A     		ldr	r2, .L29+32
 466 00da D35C     		ldrb	r3, [r2, r3]
 467 00dc 3A1C     		mov	r2, r7
 468 00de 1232     		add	r2, r2, #18
 469 00e0 1288     		ldrh	r2, [r2]
 470 00e2 9A42     		cmp	r2, r3
 471 00e4 1ED9     		bls	.L20
ARM GAS  C:\Users\IEUser\AppData\Local\Temp\cctak5Pf.s 			page 17


 434:.\Generated_Source\PSoC4/CapSense_CSHL.c **** 	#else
 435:.\Generated_Source\PSoC4/CapSense_CSHL.c **** 	if((sign == 0u) && (tempRaw > (uint16) CapSense_NEGATIVE_NOISE_THRESHOLD))
 436:.\Generated_Source\PSoC4/CapSense_CSHL.c **** 	#endif /* (CapSense_TUNING_METHOD != CapSense__TUNING_NONE) */ 
 437:.\Generated_Source\PSoC4/CapSense_CSHL.c ****     {
 438:.\Generated_Source\PSoC4/CapSense_CSHL.c ****         if(CapSense_lowBaselineResetCnt[sensor] >= CapSense_lowBaselineReset[sensor])
 472              		.loc 1 438 0 is_stmt 1
 473 00e6 4B4A     		ldr	r2, .L29+28
 474 00e8 7B68     		ldr	r3, [r7, #4]
 475 00ea D318     		add	r3, r2, r3
 476 00ec 1A78     		ldrb	r2, [r3]
 477 00ee 4B49     		ldr	r1, .L29+36
 478 00f0 7B68     		ldr	r3, [r7, #4]
 479 00f2 CB18     		add	r3, r1, r3
 480 00f4 1B78     		ldrb	r3, [r3]
 481 00f6 9A42     		cmp	r2, r3
 482 00f8 09D3     		bcc	.L21
 439:.\Generated_Source\PSoC4/CapSense_CSHL.c ****         {
 440:.\Generated_Source\PSoC4/CapSense_CSHL.c ****             CapSense_BaseInit(sensor);
 483              		.loc 1 440 0
 484 00fa 7B68     		ldr	r3, [r7, #4]
 485 00fc 181C     		mov	r0, r3
 486 00fe FFF7FEFF 		bl	CapSense_BaseInit
 441:.\Generated_Source\PSoC4/CapSense_CSHL.c ****             CapSense_lowBaselineResetCnt[sensor] = 0u;
 487              		.loc 1 441 0
 488 0102 444A     		ldr	r2, .L29+28
 489 0104 7B68     		ldr	r3, [r7, #4]
 490 0106 D318     		add	r3, r2, r3
 491 0108 0022     		mov	r2, #0
 492 010a 1A70     		strb	r2, [r3]
 438:.\Generated_Source\PSoC4/CapSense_CSHL.c ****         if(CapSense_lowBaselineResetCnt[sensor] >= CapSense_lowBaselineReset[sensor])
 493              		.loc 1 438 0
 494 010c 4CE0     		b	.L23
 495              	.L21:
 442:.\Generated_Source\PSoC4/CapSense_CSHL.c ****         }
 443:.\Generated_Source\PSoC4/CapSense_CSHL.c ****         else
 444:.\Generated_Source\PSoC4/CapSense_CSHL.c ****         {
 445:.\Generated_Source\PSoC4/CapSense_CSHL.c ****             CapSense_lowBaselineResetCnt[sensor]++;
 496              		.loc 1 445 0
 497 010e 414A     		ldr	r2, .L29+28
 498 0110 7B68     		ldr	r3, [r7, #4]
 499 0112 D318     		add	r3, r2, r3
 500 0114 1B78     		ldrb	r3, [r3]
 501 0116 0133     		add	r3, r3, #1
 502 0118 DAB2     		uxtb	r2, r3
 503 011a 3E49     		ldr	r1, .L29+28
 504 011c 7B68     		ldr	r3, [r7, #4]
 505 011e CB18     		add	r3, r1, r3
 506 0120 1A70     		strb	r2, [r3]
 438:.\Generated_Source\PSoC4/CapSense_CSHL.c ****         if(CapSense_lowBaselineResetCnt[sensor] >= CapSense_lowBaselineReset[sensor])
 507              		.loc 1 438 0
 508 0122 41E0     		b	.L23
 509              	.L20:
 446:.\Generated_Source\PSoC4/CapSense_CSHL.c ****         }
 447:.\Generated_Source\PSoC4/CapSense_CSHL.c ****     }
 448:.\Generated_Source\PSoC4/CapSense_CSHL.c ****     else
 449:.\Generated_Source\PSoC4/CapSense_CSHL.c ****     {
 450:.\Generated_Source\PSoC4/CapSense_CSHL.c ****         #if (CapSense_AUTO_RESET == CapSense_AUTO_RESET_DISABLE)
ARM GAS  C:\Users\IEUser\AppData\Local\Temp\cctak5Pf.s 			page 18


 451:.\Generated_Source\PSoC4/CapSense_CSHL.c **** 		#if (CapSense_TUNING_METHOD != CapSense__TUNING_NONE)			
 452:.\Generated_Source\PSoC4/CapSense_CSHL.c **** 			/* Update Baseline if lower than noiseThreshold */
 453:.\Generated_Source\PSoC4/CapSense_CSHL.c **** 			if ( (tempRaw <= noiseThreshold) || 
 510              		.loc 1 453 0
 511 0124 3B1C     		mov	r3, r7
 512 0126 0E33     		add	r3, r3, #14
 513 0128 1B78     		ldrb	r3, [r3]
 514 012a 9BB2     		uxth	r3, r3
 515 012c 3A1C     		mov	r2, r7
 516 012e 1232     		add	r2, r2, #18
 517 0130 1288     		ldrh	r2, [r2]
 518 0132 9A42     		cmp	r2, r3
 519 0134 0CD9     		bls	.L24
 454:.\Generated_Source\PSoC4/CapSense_CSHL.c **** 			 ((tempRaw < (uint16) CapSense_negativeNoiseThreshold[widget])
 520              		.loc 1 454 0 discriminator 1
 521 0136 3B1C     		mov	r3, r7
 522 0138 0F33     		add	r3, r3, #15
 523 013a 1B78     		ldrb	r3, [r3]
 524 013c 364A     		ldr	r2, .L29+32
 525 013e D35C     		ldrb	r3, [r2, r3]
 453:.\Generated_Source\PSoC4/CapSense_CSHL.c **** 			if ( (tempRaw <= noiseThreshold) || 
 526              		.loc 1 453 0 discriminator 1
 527 0140 3A1C     		mov	r2, r7
 528 0142 1232     		add	r2, r2, #18
 529 0144 1288     		ldrh	r2, [r2]
 530 0146 9A42     		cmp	r2, r3
 531 0148 2ED2     		bcs	.L23
 455:.\Generated_Source\PSoC4/CapSense_CSHL.c **** 			   && (sign == 0u)))
 532              		.loc 1 455 0
 533 014a 7B69     		ldr	r3, [r7, #20]
 534 014c 002B     		cmp	r3, #0
 535 014e 2BD1     		bne	.L23
 536              	.L24:
 456:.\Generated_Source\PSoC4/CapSense_CSHL.c **** 			{
 457:.\Generated_Source\PSoC4/CapSense_CSHL.c **** 		#else
 458:.\Generated_Source\PSoC4/CapSense_CSHL.c **** 			/* Update Baseline if lower than noiseThreshold */
 459:.\Generated_Source\PSoC4/CapSense_CSHL.c **** 			if ( (tempRaw <= noiseThreshold) || 
 460:.\Generated_Source\PSoC4/CapSense_CSHL.c **** 				 ((tempRaw < (uint16) CapSense_NEGATIVE_NOISE_THRESHOLD)
 461:.\Generated_Source\PSoC4/CapSense_CSHL.c **** 				   && (sign == 0u)))
 462:.\Generated_Source\PSoC4/CapSense_CSHL.c **** 			{
 463:.\Generated_Source\PSoC4/CapSense_CSHL.c **** 		#endif /* (CapSense_TUNING_METHOD != CapSense__TUNING_NONE) */ 
 464:.\Generated_Source\PSoC4/CapSense_CSHL.c ****         #endif /* (CapSense_AUTO_RESET == CapSense_AUTO_RESET_DISABLE) */
 465:.\Generated_Source\PSoC4/CapSense_CSHL.c ****                 /* Make full Baseline 23 bits */
 466:.\Generated_Source\PSoC4/CapSense_CSHL.c ****                 calc = (uint32) CapSense_sensorBaseline[sensor] << 8u;
 537              		.loc 1 466 0
 538 0150 2F4B     		ldr	r3, .L29+24
 539 0152 7A68     		ldr	r2, [r7, #4]
 540 0154 5200     		lsl	r2, r2, #1
 541 0156 D35A     		ldrh	r3, [r2, r3]
 542 0158 1B02     		lsl	r3, r3, #8
 543 015a BB60     		str	r3, [r7, #8]
 467:.\Generated_Source\PSoC4/CapSense_CSHL.c ****                 calc |= (uint32) CapSense_sensorBaselineLow[sensor];
 544              		.loc 1 467 0
 545 015c 304A     		ldr	r2, .L29+40
 546 015e 7B68     		ldr	r3, [r7, #4]
 547 0160 D318     		add	r3, r2, r3
 548 0162 1B78     		ldrb	r3, [r3]
ARM GAS  C:\Users\IEUser\AppData\Local\Temp\cctak5Pf.s 			page 19


 549 0164 BA68     		ldr	r2, [r7, #8]
 550 0166 1343     		orr	r3, r2
 551 0168 BB60     		str	r3, [r7, #8]
 468:.\Generated_Source\PSoC4/CapSense_CSHL.c **** 
 469:.\Generated_Source\PSoC4/CapSense_CSHL.c ****                 /* Add Raw Data to Baseline */
 470:.\Generated_Source\PSoC4/CapSense_CSHL.c ****                 calc += filteredRawData;
 552              		.loc 1 470 0
 553 016a 3B1C     		mov	r3, r7
 554 016c 1033     		add	r3, r3, #16
 555 016e 1B88     		ldrh	r3, [r3]
 556 0170 BA68     		ldr	r2, [r7, #8]
 557 0172 D318     		add	r3, r2, r3
 558 0174 BB60     		str	r3, [r7, #8]
 471:.\Generated_Source\PSoC4/CapSense_CSHL.c **** 
 472:.\Generated_Source\PSoC4/CapSense_CSHL.c ****                 /* Sub the high Baseline */
 473:.\Generated_Source\PSoC4/CapSense_CSHL.c ****                 calc -= CapSense_sensorBaseline[sensor];
 559              		.loc 1 473 0
 560 0176 264B     		ldr	r3, .L29+24
 561 0178 7A68     		ldr	r2, [r7, #4]
 562 017a 5200     		lsl	r2, r2, #1
 563 017c D35A     		ldrh	r3, [r2, r3]
 564 017e BA68     		ldr	r2, [r7, #8]
 565 0180 D31A     		sub	r3, r2, r3
 566 0182 BB60     		str	r3, [r7, #8]
 474:.\Generated_Source\PSoC4/CapSense_CSHL.c **** 
 475:.\Generated_Source\PSoC4/CapSense_CSHL.c ****                 /* Put Baseline and BaselineLow */
 476:.\Generated_Source\PSoC4/CapSense_CSHL.c ****                 CapSense_sensorBaseline[sensor] = ((uint16) (calc >> 8u));
 567              		.loc 1 476 0
 568 0184 BB68     		ldr	r3, [r7, #8]
 569 0186 1B0A     		lsr	r3, r3, #8
 570 0188 99B2     		uxth	r1, r3
 571 018a 214B     		ldr	r3, .L29+24
 572 018c 7A68     		ldr	r2, [r7, #4]
 573 018e 5200     		lsl	r2, r2, #1
 574 0190 D152     		strh	r1, [r2, r3]
 477:.\Generated_Source\PSoC4/CapSense_CSHL.c ****                 CapSense_sensorBaselineLow[sensor] = ((uint8) calc);
 575              		.loc 1 477 0
 576 0192 BB68     		ldr	r3, [r7, #8]
 577 0194 DAB2     		uxtb	r2, r3
 578 0196 2249     		ldr	r1, .L29+40
 579 0198 7B68     		ldr	r3, [r7, #4]
 580 019a CB18     		add	r3, r1, r3
 581 019c 1A70     		strb	r2, [r3]
 478:.\Generated_Source\PSoC4/CapSense_CSHL.c **** 
 479:.\Generated_Source\PSoC4/CapSense_CSHL.c ****                 CapSense_lowBaselineResetCnt[sensor] = 0u;
 582              		.loc 1 479 0
 583 019e 1D4A     		ldr	r2, .L29+28
 584 01a0 7B68     		ldr	r3, [r7, #4]
 585 01a2 D318     		add	r3, r2, r3
 586 01a4 0022     		mov	r2, #0
 587 01a6 1A70     		strb	r2, [r3]
 588              	.L23:
 480:.\Generated_Source\PSoC4/CapSense_CSHL.c ****         #if (CapSense_AUTO_RESET == CapSense_AUTO_RESET_DISABLE)
 481:.\Generated_Source\PSoC4/CapSense_CSHL.c ****             }
 482:.\Generated_Source\PSoC4/CapSense_CSHL.c ****         #endif /* (CapSense_AUTO_RESET == CapSense_AUTO_RESET_DISABLE) */
 483:.\Generated_Source\PSoC4/CapSense_CSHL.c ****     }
 484:.\Generated_Source\PSoC4/CapSense_CSHL.c **** 
ARM GAS  C:\Users\IEUser\AppData\Local\Temp\cctak5Pf.s 			page 20


 485:.\Generated_Source\PSoC4/CapSense_CSHL.c ****     /* Calculate Signal if positive difference > noiseThreshold */
 486:.\Generated_Source\PSoC4/CapSense_CSHL.c ****     if((tempRaw > (uint16) noiseThreshold) && (sign != 0u))
 589              		.loc 1 486 0
 590 01a8 3B1C     		mov	r3, r7
 591 01aa 0E33     		add	r3, r3, #14
 592 01ac 1B78     		ldrb	r3, [r3]
 593 01ae 9BB2     		uxth	r3, r3
 594 01b0 3A1C     		mov	r2, r7
 595 01b2 1232     		add	r2, r2, #18
 596 01b4 1288     		ldrh	r2, [r2]
 597 01b6 9A42     		cmp	r2, r3
 598 01b8 16D9     		bls	.L25
 599              		.loc 1 486 0 is_stmt 0 discriminator 1
 600 01ba 7B69     		ldr	r3, [r7, #20]
 601 01bc 002B     		cmp	r3, #0
 602 01be 13D0     		beq	.L25
 487:.\Generated_Source\PSoC4/CapSense_CSHL.c ****     {
 488:.\Generated_Source\PSoC4/CapSense_CSHL.c ****         #if (CapSense_SIGNAL_SIZE == CapSense_SIGNAL_SIZE_UINT8)
 489:.\Generated_Source\PSoC4/CapSense_CSHL.c ****             /* Over flow defence for uint8 */
 490:.\Generated_Source\PSoC4/CapSense_CSHL.c ****             if (tempRaw > 0xFFu)
 603              		.loc 1 490 0 is_stmt 1
 604 01c0 3B1C     		mov	r3, r7
 605 01c2 1233     		add	r3, r3, #18
 606 01c4 1B88     		ldrh	r3, [r3]
 607 01c6 FF2B     		cmp	r3, #255
 608 01c8 05D9     		bls	.L26
 491:.\Generated_Source\PSoC4/CapSense_CSHL.c ****             {
 492:.\Generated_Source\PSoC4/CapSense_CSHL.c ****                 CapSense_sensorSignal[sensor] = 0xFFu;
 609              		.loc 1 492 0
 610 01ca 164A     		ldr	r2, .L29+44
 611 01cc 7B68     		ldr	r3, [r7, #4]
 612 01ce D318     		add	r3, r2, r3
 613 01d0 FF22     		mov	r2, #255
 614 01d2 1A70     		strb	r2, [r3]
 490:.\Generated_Source\PSoC4/CapSense_CSHL.c ****             if (tempRaw > 0xFFu)
 615              		.loc 1 490 0
 616 01d4 0DE0     		b	.L16
 617              	.L26:
 493:.\Generated_Source\PSoC4/CapSense_CSHL.c ****             }    
 494:.\Generated_Source\PSoC4/CapSense_CSHL.c ****             else 
 495:.\Generated_Source\PSoC4/CapSense_CSHL.c ****             {
 496:.\Generated_Source\PSoC4/CapSense_CSHL.c ****                 CapSense_sensorSignal[sensor] = ((uint8) tempRaw);
 618              		.loc 1 496 0
 619 01d6 3B1C     		mov	r3, r7
 620 01d8 1233     		add	r3, r3, #18
 621 01da 1B88     		ldrh	r3, [r3]
 622 01dc DAB2     		uxtb	r2, r3
 623 01de 1149     		ldr	r1, .L29+44
 624 01e0 7B68     		ldr	r3, [r7, #4]
 625 01e2 CB18     		add	r3, r1, r3
 626 01e4 1A70     		strb	r2, [r3]
 490:.\Generated_Source\PSoC4/CapSense_CSHL.c ****             if (tempRaw > 0xFFu)
 627              		.loc 1 490 0
 628 01e6 04E0     		b	.L16
 629              	.L25:
 497:.\Generated_Source\PSoC4/CapSense_CSHL.c ****             }
 498:.\Generated_Source\PSoC4/CapSense_CSHL.c ****         #else
ARM GAS  C:\Users\IEUser\AppData\Local\Temp\cctak5Pf.s 			page 21


 499:.\Generated_Source\PSoC4/CapSense_CSHL.c ****             CapSense_sensorSignal[sensor] = ((uint16) tempRaw);
 500:.\Generated_Source\PSoC4/CapSense_CSHL.c ****         #endif  /* (CapSense_SIGNAL_SIZE == CapSense_SIGNAL_SIZE_UINT8) */
 501:.\Generated_Source\PSoC4/CapSense_CSHL.c ****     }
 502:.\Generated_Source\PSoC4/CapSense_CSHL.c ****     else
 503:.\Generated_Source\PSoC4/CapSense_CSHL.c ****     {
 504:.\Generated_Source\PSoC4/CapSense_CSHL.c ****         /* Signal is zero */
 505:.\Generated_Source\PSoC4/CapSense_CSHL.c ****         CapSense_sensorSignal[sensor] = 0u;
 630              		.loc 1 505 0
 631 01e8 0E4A     		ldr	r2, .L29+44
 632 01ea 7B68     		ldr	r3, [r7, #4]
 633 01ec D318     		add	r3, r2, r3
 634 01ee 0022     		mov	r2, #0
 635 01f0 1A70     		strb	r2, [r3]
 636              	.L16:
 506:.\Generated_Source\PSoC4/CapSense_CSHL.c ****     }
 507:.\Generated_Source\PSoC4/CapSense_CSHL.c **** 
 508:.\Generated_Source\PSoC4/CapSense_CSHL.c ****     #if (CapSense_TOTAL_GENERICS_COUNT)
 509:.\Generated_Source\PSoC4/CapSense_CSHL.c ****         /* Exclude generic widget */
 510:.\Generated_Source\PSoC4/CapSense_CSHL.c ****         }
 511:.\Generated_Source\PSoC4/CapSense_CSHL.c ****     #endif  /* CapSense_TOTAL_GENERICS_COUNT */
 512:.\Generated_Source\PSoC4/CapSense_CSHL.c **** }
 637              		.loc 1 512 0
 638 01f2 BD46     		mov	sp, r7
 639 01f4 07B0     		add	sp, sp, #28
 640              		@ sp needed
 641 01f6 90BD     		pop	{r4, r7, pc}
 642              	.L30:
 643              		.align	2
 644              	.L29:
 645 01f8 00000000 		.word	CapSense_widgetNumber
 646 01fc 00000000 		.word	CapSense_noiseThreshold
 647 0200 00000000 		.word	CapSense_sensorRaw
 648 0204 00000000 		.word	CapSense_enableRawFilters
 649 0208 00000000 		.word	CapSense_rawFilterData1
 650 020c 00000000 		.word	CapSense_config
 651 0210 00000000 		.word	CapSense_sensorBaseline
 652 0214 00000000 		.word	CapSense_lowBaselineResetCnt
 653 0218 00000000 		.word	CapSense_negativeNoiseThreshold
 654 021c 00000000 		.word	CapSense_lowBaselineReset
 655 0220 00000000 		.word	CapSense_sensorBaselineLow
 656 0224 00000000 		.word	CapSense_sensorSignal
 657              		.cfi_endproc
 658              	.LFE37:
 659              		.size	CapSense_UpdateBaselineNoThreshold, .-CapSense_UpdateBaselineNoThreshold
 660              		.section	.text.CapSense_UpdateSensorBaseline,"ax",%progbits
 661              		.align	2
 662              		.global	CapSense_UpdateSensorBaseline
 663              		.code	16
 664              		.thumb_func
 665              		.type	CapSense_UpdateSensorBaseline, %function
 666              	CapSense_UpdateSensorBaseline:
 667              	.LFB38:
 513:.\Generated_Source\PSoC4/CapSense_CSHL.c **** 
 514:.\Generated_Source\PSoC4/CapSense_CSHL.c **** 
 515:.\Generated_Source\PSoC4/CapSense_CSHL.c **** /*******************************************************************************
 516:.\Generated_Source\PSoC4/CapSense_CSHL.c **** * Function Name: CapSense_UpdateSensorBaseline
 517:.\Generated_Source\PSoC4/CapSense_CSHL.c **** ********************************************************************************
ARM GAS  C:\Users\IEUser\AppData\Local\Temp\cctak5Pf.s 			page 22


 518:.\Generated_Source\PSoC4/CapSense_CSHL.c **** *
 519:.\Generated_Source\PSoC4/CapSense_CSHL.c **** * Summary:
 520:.\Generated_Source\PSoC4/CapSense_CSHL.c **** *  Updates the CapSense_sensorBaseline[sensor] array element using the 
 521:.\Generated_Source\PSoC4/CapSense_CSHL.c **** *  LP filter with k = 256. The signal calculates the difference of count by 
 522:.\Generated_Source\PSoC4/CapSense_CSHL.c **** *  subtracting the previous baseline from the current raw count value and stores
 523:.\Generated_Source\PSoC4/CapSense_CSHL.c **** *  it in CapSense_sensorSignal[sensor]. 
 524:.\Generated_Source\PSoC4/CapSense_CSHL.c **** *  If the auto reset option is enabled, the baseline updated regards the noise threshold. 
 525:.\Generated_Source\PSoC4/CapSense_CSHL.c **** *  If the auto reset option is disabled, the baseline stops updating. 
 526:.\Generated_Source\PSoC4/CapSense_CSHL.c **** *  Baseline is loaded with raw count value if a signal is greater than zero and  
 527:.\Generated_Source\PSoC4/CapSense_CSHL.c **** *  if signal is less than noise threshold.
 528:.\Generated_Source\PSoC4/CapSense_CSHL.c **** *  Raw data filters are applied to the values if enabled before baseline 
 529:.\Generated_Source\PSoC4/CapSense_CSHL.c **** *  calculation.
 530:.\Generated_Source\PSoC4/CapSense_CSHL.c **** *  This API updates the thresholds in the Smartsense Mode.
 531:.\Generated_Source\PSoC4/CapSense_CSHL.c **** *
 532:.\Generated_Source\PSoC4/CapSense_CSHL.c **** * Parameters:
 533:.\Generated_Source\PSoC4/CapSense_CSHL.c **** *  sensor:  Sensor number.
 534:.\Generated_Source\PSoC4/CapSense_CSHL.c **** *
 535:.\Generated_Source\PSoC4/CapSense_CSHL.c **** * Return:
 536:.\Generated_Source\PSoC4/CapSense_CSHL.c **** *  None
 537:.\Generated_Source\PSoC4/CapSense_CSHL.c **** *
 538:.\Generated_Source\PSoC4/CapSense_CSHL.c **** * Global Variables:
 539:.\Generated_Source\PSoC4/CapSense_CSHL.c **** *  CapSense_widgetNumber[]  - stores widget numbers.
 540:.\Generated_Source\PSoC4/CapSense_CSHL.c **** * 
 541:.\Generated_Source\PSoC4/CapSense_CSHL.c **** * Side Effects:
 542:.\Generated_Source\PSoC4/CapSense_CSHL.c **** *  None
 543:.\Generated_Source\PSoC4/CapSense_CSHL.c **** * 
 544:.\Generated_Source\PSoC4/CapSense_CSHL.c **** *******************************************************************************/
 545:.\Generated_Source\PSoC4/CapSense_CSHL.c ****  void CapSense_UpdateSensorBaseline(uint32 sensor)
 546:.\Generated_Source\PSoC4/CapSense_CSHL.c **** {
 668              		.loc 1 546 0
 669              		.cfi_startproc
 670 0000 80B5     		push	{r7, lr}
 671              		.cfi_def_cfa_offset 8
 672              		.cfi_offset 7, -8
 673              		.cfi_offset 14, -4
 674 0002 82B0     		sub	sp, sp, #8
 675              		.cfi_def_cfa_offset 16
 676 0004 00AF     		add	r7, sp, #0
 677              		.cfi_def_cfa_register 7
 678 0006 7860     		str	r0, [r7, #4]
 547:.\Generated_Source\PSoC4/CapSense_CSHL.c ****     #if (CapSense_TOTAL_GENERICS_COUNT)
 548:.\Generated_Source\PSoC4/CapSense_CSHL.c **** 		uint32 widget;
 549:.\Generated_Source\PSoC4/CapSense_CSHL.c **** 		
 550:.\Generated_Source\PSoC4/CapSense_CSHL.c **** 		widget = CapSense_widgetNumber[sensor];
 551:.\Generated_Source\PSoC4/CapSense_CSHL.c **** 	
 552:.\Generated_Source\PSoC4/CapSense_CSHL.c ****         /* Exclude generic widget */
 553:.\Generated_Source\PSoC4/CapSense_CSHL.c ****         if(widget < CapSense_END_OF_WIDGETS_INDEX)
 554:.\Generated_Source\PSoC4/CapSense_CSHL.c ****         {
 555:.\Generated_Source\PSoC4/CapSense_CSHL.c ****     #endif  /* CapSense_TOTAL_GENERICS_COUNT */
 556:.\Generated_Source\PSoC4/CapSense_CSHL.c **** 
 557:.\Generated_Source\PSoC4/CapSense_CSHL.c ****     #if (CapSense_TUNING_METHOD == CapSense__TUNING_AUTO)
 558:.\Generated_Source\PSoC4/CapSense_CSHL.c ****     	CapSense_UpdateThresholds(sensor);
 679              		.loc 1 558 0
 680 0008 7B68     		ldr	r3, [r7, #4]
 681 000a 181C     		mov	r0, r3
 682 000c FFF7FEFF 		bl	CapSense_UpdateThresholds
 559:.\Generated_Source\PSoC4/CapSense_CSHL.c ****     #endif /* (CapSense_TUNING_METHOD == CapSense__TUNING_AUTO) */
ARM GAS  C:\Users\IEUser\AppData\Local\Temp\cctak5Pf.s 			page 23


 560:.\Generated_Source\PSoC4/CapSense_CSHL.c **** 
 561:.\Generated_Source\PSoC4/CapSense_CSHL.c ****     CapSense_UpdateBaselineNoThreshold(sensor);
 683              		.loc 1 561 0
 684 0010 7B68     		ldr	r3, [r7, #4]
 685 0012 181C     		mov	r0, r3
 686 0014 FFF7FEFF 		bl	CapSense_UpdateBaselineNoThreshold
 562:.\Generated_Source\PSoC4/CapSense_CSHL.c ****     
 563:.\Generated_Source\PSoC4/CapSense_CSHL.c ****     #if (CapSense_TOTAL_GENERICS_COUNT)
 564:.\Generated_Source\PSoC4/CapSense_CSHL.c ****         /* Exclude generic widget */
 565:.\Generated_Source\PSoC4/CapSense_CSHL.c ****         }
 566:.\Generated_Source\PSoC4/CapSense_CSHL.c ****     #endif  /* CapSense_TOTAL_GENERICS_COUNT */
 567:.\Generated_Source\PSoC4/CapSense_CSHL.c **** }
 687              		.loc 1 567 0
 688 0018 BD46     		mov	sp, r7
 689 001a 02B0     		add	sp, sp, #8
 690              		@ sp needed
 691 001c 80BD     		pop	{r7, pc}
 692              		.cfi_endproc
 693              	.LFE38:
 694              		.size	CapSense_UpdateSensorBaseline, .-CapSense_UpdateSensorBaseline
 695 001e C046     		.section	.text.CapSense_UpdateEnabledBaselines,"ax",%progbits
 696              		.align	2
 697              		.global	CapSense_UpdateEnabledBaselines
 698              		.code	16
 699              		.thumb_func
 700              		.type	CapSense_UpdateEnabledBaselines, %function
 701              	CapSense_UpdateEnabledBaselines:
 702              	.LFB39:
 568:.\Generated_Source\PSoC4/CapSense_CSHL.c **** 
 569:.\Generated_Source\PSoC4/CapSense_CSHL.c **** 
 570:.\Generated_Source\PSoC4/CapSense_CSHL.c **** /*******************************************************************************
 571:.\Generated_Source\PSoC4/CapSense_CSHL.c **** * Function Name: CapSense_UpdateEnabledBaselines
 572:.\Generated_Source\PSoC4/CapSense_CSHL.c **** ********************************************************************************
 573:.\Generated_Source\PSoC4/CapSense_CSHL.c **** *
 574:.\Generated_Source\PSoC4/CapSense_CSHL.c **** * Summary:
 575:.\Generated_Source\PSoC4/CapSense_CSHL.c **** *  Checks CapSense_sensorEnableMask[] array and calls the 
 576:.\Generated_Source\PSoC4/CapSense_CSHL.c **** *  CapSense_UpdateSensorBaseline function to update the baselines 
 577:.\Generated_Source\PSoC4/CapSense_CSHL.c **** *  for the enabled sensors.
 578:.\Generated_Source\PSoC4/CapSense_CSHL.c **** *
 579:.\Generated_Source\PSoC4/CapSense_CSHL.c **** * Parameters:
 580:.\Generated_Source\PSoC4/CapSense_CSHL.c **** *  None
 581:.\Generated_Source\PSoC4/CapSense_CSHL.c **** *
 582:.\Generated_Source\PSoC4/CapSense_CSHL.c **** * Return:
 583:.\Generated_Source\PSoC4/CapSense_CSHL.c **** *  None
 584:.\Generated_Source\PSoC4/CapSense_CSHL.c **** *
 585:.\Generated_Source\PSoC4/CapSense_CSHL.c **** * Global Variables:
 586:.\Generated_Source\PSoC4/CapSense_CSHL.c **** *  CapSense_sensorEnableMask[] - used to store the sensor scanning 
 587:.\Generated_Source\PSoC4/CapSense_CSHL.c **** *  state.
 588:.\Generated_Source\PSoC4/CapSense_CSHL.c **** *  CapSense_sensorEnableMask[0] contains the masked bits for sensors 
 589:.\Generated_Source\PSoC4/CapSense_CSHL.c **** *   0 through 7 (sensor 0 is bit 0, sensor 1 is bit 1).
 590:.\Generated_Source\PSoC4/CapSense_CSHL.c **** *  CapSense_sensorEnableMask[1] contains the masked bits for 
 591:.\Generated_Source\PSoC4/CapSense_CSHL.c **** *  sensors 8 through 15 (if needed), and so on.
 592:.\Generated_Source\PSoC4/CapSense_CSHL.c **** *  0 - sensor doesn't scan by CapSense_ScanEnabledWidgets().
 593:.\Generated_Source\PSoC4/CapSense_CSHL.c **** *  1 - sensor scans by CapSense_ScanEnabledWidgets().
 594:.\Generated_Source\PSoC4/CapSense_CSHL.c **** * 
 595:.\Generated_Source\PSoC4/CapSense_CSHL.c **** * Side Effects:
 596:.\Generated_Source\PSoC4/CapSense_CSHL.c **** *  None
ARM GAS  C:\Users\IEUser\AppData\Local\Temp\cctak5Pf.s 			page 24


 597:.\Generated_Source\PSoC4/CapSense_CSHL.c **** * 
 598:.\Generated_Source\PSoC4/CapSense_CSHL.c **** *******************************************************************************/
 599:.\Generated_Source\PSoC4/CapSense_CSHL.c ****  void CapSense_UpdateEnabledBaselines(void)
 600:.\Generated_Source\PSoC4/CapSense_CSHL.c **** {
 703              		.loc 1 600 0
 704              		.cfi_startproc
 705 0000 80B5     		push	{r7, lr}
 706              		.cfi_def_cfa_offset 8
 707              		.cfi_offset 7, -8
 708              		.cfi_offset 14, -4
 709 0002 82B0     		sub	sp, sp, #8
 710              		.cfi_def_cfa_offset 16
 711 0004 00AF     		add	r7, sp, #0
 712              		.cfi_def_cfa_register 7
 601:.\Generated_Source\PSoC4/CapSense_CSHL.c ****     uint32 i;
 602:.\Generated_Source\PSoC4/CapSense_CSHL.c ****     uint32 isSensorEnabled;
 603:.\Generated_Source\PSoC4/CapSense_CSHL.c ****     
 604:.\Generated_Source\PSoC4/CapSense_CSHL.c ****     for(i = 0u; i < CapSense_TOTAL_SENSOR_COUNT; i++)
 713              		.loc 1 604 0
 714 0006 0023     		mov	r3, #0
 715 0008 7B60     		str	r3, [r7, #4]
 716 000a 11E0     		b	.L33
 717              	.L35:
 605:.\Generated_Source\PSoC4/CapSense_CSHL.c ****     {
 606:.\Generated_Source\PSoC4/CapSense_CSHL.c ****         isSensorEnabled = CapSense_GetBitValue(CapSense_sensorEnableMask, i);
 718              		.loc 1 606 0
 719 000c 0B4A     		ldr	r2, .L36
 720 000e 7B68     		ldr	r3, [r7, #4]
 721 0010 101C     		mov	r0, r2
 722 0012 191C     		mov	r1, r3
 723 0014 FFF7FEFF 		bl	CapSense_GetBitValue
 724 0018 031C     		mov	r3, r0
 725 001a 3B60     		str	r3, [r7]
 607:.\Generated_Source\PSoC4/CapSense_CSHL.c ****         
 608:.\Generated_Source\PSoC4/CapSense_CSHL.c ****         if(0u != isSensorEnabled)
 726              		.loc 1 608 0
 727 001c 3B68     		ldr	r3, [r7]
 728 001e 002B     		cmp	r3, #0
 729 0020 03D0     		beq	.L34
 609:.\Generated_Source\PSoC4/CapSense_CSHL.c ****         {
 610:.\Generated_Source\PSoC4/CapSense_CSHL.c ****             CapSense_UpdateSensorBaseline(i);
 730              		.loc 1 610 0
 731 0022 7B68     		ldr	r3, [r7, #4]
 732 0024 181C     		mov	r0, r3
 733 0026 FFF7FEFF 		bl	CapSense_UpdateSensorBaseline
 734              	.L34:
 604:.\Generated_Source\PSoC4/CapSense_CSHL.c ****     for(i = 0u; i < CapSense_TOTAL_SENSOR_COUNT; i++)
 735              		.loc 1 604 0
 736 002a 7B68     		ldr	r3, [r7, #4]
 737 002c 0133     		add	r3, r3, #1
 738 002e 7B60     		str	r3, [r7, #4]
 739              	.L33:
 604:.\Generated_Source\PSoC4/CapSense_CSHL.c ****     for(i = 0u; i < CapSense_TOTAL_SENSOR_COUNT; i++)
 740              		.loc 1 604 0 is_stmt 0 discriminator 1
 741 0030 7B68     		ldr	r3, [r7, #4]
 742 0032 042B     		cmp	r3, #4
 743 0034 EAD9     		bls	.L35
ARM GAS  C:\Users\IEUser\AppData\Local\Temp\cctak5Pf.s 			page 25


 611:.\Generated_Source\PSoC4/CapSense_CSHL.c ****         }
 612:.\Generated_Source\PSoC4/CapSense_CSHL.c ****     }
 613:.\Generated_Source\PSoC4/CapSense_CSHL.c **** }
 744              		.loc 1 613 0 is_stmt 1
 745 0036 BD46     		mov	sp, r7
 746 0038 02B0     		add	sp, sp, #8
 747              		@ sp needed
 748 003a 80BD     		pop	{r7, pc}
 749              	.L37:
 750              		.align	2
 751              	.L36:
 752 003c 00000000 		.word	CapSense_sensorEnableMask
 753              		.cfi_endproc
 754              	.LFE39:
 755              		.size	CapSense_UpdateEnabledBaselines, .-CapSense_UpdateEnabledBaselines
 756              		.section	.text.CapSense_UpdateWidgetBaseline,"ax",%progbits
 757              		.align	2
 758              		.global	CapSense_UpdateWidgetBaseline
 759              		.code	16
 760              		.thumb_func
 761              		.type	CapSense_UpdateWidgetBaseline, %function
 762              	CapSense_UpdateWidgetBaseline:
 763              	.LFB40:
 614:.\Generated_Source\PSoC4/CapSense_CSHL.c **** 
 615:.\Generated_Source\PSoC4/CapSense_CSHL.c **** /*******************************************************************************
 616:.\Generated_Source\PSoC4/CapSense_CSHL.c **** * Function Name: CapSense_UpdateWidgetBaseline
 617:.\Generated_Source\PSoC4/CapSense_CSHL.c **** ********************************************************************************
 618:.\Generated_Source\PSoC4/CapSense_CSHL.c **** *
 619:.\Generated_Source\PSoC4/CapSense_CSHL.c **** * Summary:
 620:.\Generated_Source\PSoC4/CapSense_CSHL.c **** *  Checks CapSense_sensorEnableMask[] array and calls the 
 621:.\Generated_Source\PSoC4/CapSense_CSHL.c **** *  CapSense_UpdateSensorBaseline function to update the baselines 
 622:.\Generated_Source\PSoC4/CapSense_CSHL.c **** *  for the enabled sensors that belong to widget.
 623:.\Generated_Source\PSoC4/CapSense_CSHL.c **** *
 624:.\Generated_Source\PSoC4/CapSense_CSHL.c **** * Parameters:
 625:.\Generated_Source\PSoC4/CapSense_CSHL.c **** *  widget:  Widget number.
 626:.\Generated_Source\PSoC4/CapSense_CSHL.c **** *
 627:.\Generated_Source\PSoC4/CapSense_CSHL.c **** * Return:
 628:.\Generated_Source\PSoC4/CapSense_CSHL.c **** *  None
 629:.\Generated_Source\PSoC4/CapSense_CSHL.c **** *
 630:.\Generated_Source\PSoC4/CapSense_CSHL.c **** * Global Variables:
 631:.\Generated_Source\PSoC4/CapSense_CSHL.c **** *  CapSense_sensorEnableMask[] - used to store the sensor scanning 
 632:.\Generated_Source\PSoC4/CapSense_CSHL.c **** *  state.
 633:.\Generated_Source\PSoC4/CapSense_CSHL.c **** *  CapSense_sensorEnableMask[0] contains the masked bits for sensors 
 634:.\Generated_Source\PSoC4/CapSense_CSHL.c **** *   0 through 7 (sensor 0 is bit 0, sensor 1 is bit 1).
 635:.\Generated_Source\PSoC4/CapSense_CSHL.c **** *  CapSense_sensorEnableMask[1] contains the masked bits for 
 636:.\Generated_Source\PSoC4/CapSense_CSHL.c **** *  sensors 8 through 15 (if needed), and so on.
 637:.\Generated_Source\PSoC4/CapSense_CSHL.c **** *  0 - sensor doesn't scan by CapSense_ScanEnabledWidgets().
 638:.\Generated_Source\PSoC4/CapSense_CSHL.c **** *  1 - sensor scans by CapSense_ScanEnabledWidgets().
 639:.\Generated_Source\PSoC4/CapSense_CSHL.c **** * 
 640:.\Generated_Source\PSoC4/CapSense_CSHL.c **** * Side Effects:
 641:.\Generated_Source\PSoC4/CapSense_CSHL.c **** *  None
 642:.\Generated_Source\PSoC4/CapSense_CSHL.c **** * 
 643:.\Generated_Source\PSoC4/CapSense_CSHL.c **** *******************************************************************************/
 644:.\Generated_Source\PSoC4/CapSense_CSHL.c **** void CapSense_UpdateWidgetBaseline(uint32 widget)
 645:.\Generated_Source\PSoC4/CapSense_CSHL.c **** {
 764              		.loc 1 645 0
 765              		.cfi_startproc
ARM GAS  C:\Users\IEUser\AppData\Local\Temp\cctak5Pf.s 			page 26


 766 0000 80B5     		push	{r7, lr}
 767              		.cfi_def_cfa_offset 8
 768              		.cfi_offset 7, -8
 769              		.cfi_offset 14, -4
 770 0002 88B0     		sub	sp, sp, #32
 771              		.cfi_def_cfa_offset 40
 772 0004 00AF     		add	r7, sp, #0
 773              		.cfi_def_cfa_register 7
 774 0006 7860     		str	r0, [r7, #4]
 646:.\Generated_Source\PSoC4/CapSense_CSHL.c ****     uint32 sensorsPerWidget;
 647:.\Generated_Source\PSoC4/CapSense_CSHL.c ****     uint32 firstSensor;
 648:.\Generated_Source\PSoC4/CapSense_CSHL.c ****     uint32 lastSensor;
 649:.\Generated_Source\PSoC4/CapSense_CSHL.c ****     uint32 i;
 650:.\Generated_Source\PSoC4/CapSense_CSHL.c ****     uint32 isSensorEnabled;
 651:.\Generated_Source\PSoC4/CapSense_CSHL.c ****     
 652:.\Generated_Source\PSoC4/CapSense_CSHL.c **** 	/* Get number of sensors in widget */
 653:.\Generated_Source\PSoC4/CapSense_CSHL.c **** 	sensorsPerWidget = CapSense_numberOfSensors[widget];
 775              		.loc 1 653 0
 776 0008 0523     		mov	r3, #5
 777 000a BB61     		str	r3, [r7, #24]
 654:.\Generated_Source\PSoC4/CapSense_CSHL.c **** 
 655:.\Generated_Source\PSoC4/CapSense_CSHL.c **** 	/* Get first sensor in widget */
 656:.\Generated_Source\PSoC4/CapSense_CSHL.c **** 	firstSensor = CapSense_rawDataIndex[widget];
 778              		.loc 1 656 0
 779 000c 0023     		mov	r3, #0
 780 000e 7B61     		str	r3, [r7, #20]
 657:.\Generated_Source\PSoC4/CapSense_CSHL.c **** 	
 658:.\Generated_Source\PSoC4/CapSense_CSHL.c **** 	/* Get last sensor in widget */
 659:.\Generated_Source\PSoC4/CapSense_CSHL.c **** 	lastSensor = (CapSense_rawDataIndex[widget] + sensorsPerWidget);
 781              		.loc 1 659 0
 782 0010 0023     		mov	r3, #0
 783 0012 1A1C     		mov	r2, r3
 784 0014 BB69     		ldr	r3, [r7, #24]
 785 0016 D318     		add	r3, r2, r3
 786 0018 3B61     		str	r3, [r7, #16]
 660:.\Generated_Source\PSoC4/CapSense_CSHL.c **** 	
 661:.\Generated_Source\PSoC4/CapSense_CSHL.c ****     for(i = firstSensor; i < lastSensor; i++)
 787              		.loc 1 661 0
 788 001a 7B69     		ldr	r3, [r7, #20]
 789 001c FB61     		str	r3, [r7, #28]
 790 001e 11E0     		b	.L39
 791              	.L41:
 662:.\Generated_Source\PSoC4/CapSense_CSHL.c ****     {
 663:.\Generated_Source\PSoC4/CapSense_CSHL.c ****         isSensorEnabled = CapSense_GetBitValue(CapSense_sensorEnableMask, i);
 792              		.loc 1 663 0
 793 0020 0C4A     		ldr	r2, .L42
 794 0022 FB69     		ldr	r3, [r7, #28]
 795 0024 101C     		mov	r0, r2
 796 0026 191C     		mov	r1, r3
 797 0028 FFF7FEFF 		bl	CapSense_GetBitValue
 798 002c 031C     		mov	r3, r0
 799 002e FB60     		str	r3, [r7, #12]
 664:.\Generated_Source\PSoC4/CapSense_CSHL.c ****         
 665:.\Generated_Source\PSoC4/CapSense_CSHL.c ****         if(0u != isSensorEnabled)
 800              		.loc 1 665 0
 801 0030 FB68     		ldr	r3, [r7, #12]
 802 0032 002B     		cmp	r3, #0
ARM GAS  C:\Users\IEUser\AppData\Local\Temp\cctak5Pf.s 			page 27


 803 0034 03D0     		beq	.L40
 666:.\Generated_Source\PSoC4/CapSense_CSHL.c ****         {
 667:.\Generated_Source\PSoC4/CapSense_CSHL.c ****             CapSense_UpdateSensorBaseline(i);
 804              		.loc 1 667 0
 805 0036 FB69     		ldr	r3, [r7, #28]
 806 0038 181C     		mov	r0, r3
 807 003a FFF7FEFF 		bl	CapSense_UpdateSensorBaseline
 808              	.L40:
 661:.\Generated_Source\PSoC4/CapSense_CSHL.c ****     for(i = firstSensor; i < lastSensor; i++)
 809              		.loc 1 661 0
 810 003e FB69     		ldr	r3, [r7, #28]
 811 0040 0133     		add	r3, r3, #1
 812 0042 FB61     		str	r3, [r7, #28]
 813              	.L39:
 661:.\Generated_Source\PSoC4/CapSense_CSHL.c ****     for(i = firstSensor; i < lastSensor; i++)
 814              		.loc 1 661 0 is_stmt 0 discriminator 1
 815 0044 FA69     		ldr	r2, [r7, #28]
 816 0046 3B69     		ldr	r3, [r7, #16]
 817 0048 9A42     		cmp	r2, r3
 818 004a E9D3     		bcc	.L41
 668:.\Generated_Source\PSoC4/CapSense_CSHL.c ****         }
 669:.\Generated_Source\PSoC4/CapSense_CSHL.c ****     }
 670:.\Generated_Source\PSoC4/CapSense_CSHL.c **** }
 819              		.loc 1 670 0 is_stmt 1
 820 004c BD46     		mov	sp, r7
 821 004e 08B0     		add	sp, sp, #32
 822              		@ sp needed
 823 0050 80BD     		pop	{r7, pc}
 824              	.L43:
 825 0052 C046     		.align	2
 826              	.L42:
 827 0054 00000000 		.word	CapSense_sensorEnableMask
 828              		.cfi_endproc
 829              	.LFE40:
 830              		.size	CapSense_UpdateWidgetBaseline, .-CapSense_UpdateWidgetBaseline
 831              		.section	.text.CapSense_GetBaselineData,"ax",%progbits
 832              		.align	2
 833              		.global	CapSense_GetBaselineData
 834              		.code	16
 835              		.thumb_func
 836              		.type	CapSense_GetBaselineData, %function
 837              	CapSense_GetBaselineData:
 838              	.LFB41:
 671:.\Generated_Source\PSoC4/CapSense_CSHL.c **** 
 672:.\Generated_Source\PSoC4/CapSense_CSHL.c **** 
 673:.\Generated_Source\PSoC4/CapSense_CSHL.c **** /*******************************************************************************
 674:.\Generated_Source\PSoC4/CapSense_CSHL.c **** * Function Name: CapSense_GetBaselineData
 675:.\Generated_Source\PSoC4/CapSense_CSHL.c **** ********************************************************************************
 676:.\Generated_Source\PSoC4/CapSense_CSHL.c **** *
 677:.\Generated_Source\PSoC4/CapSense_CSHL.c **** * Summary:
 678:.\Generated_Source\PSoC4/CapSense_CSHL.c **** *  This function reads the sensor baseline from the component.
 679:.\Generated_Source\PSoC4/CapSense_CSHL.c **** *
 680:.\Generated_Source\PSoC4/CapSense_CSHL.c **** * Parameters:
 681:.\Generated_Source\PSoC4/CapSense_CSHL.c **** *  sensor:  Sensor number.
 682:.\Generated_Source\PSoC4/CapSense_CSHL.c **** *
 683:.\Generated_Source\PSoC4/CapSense_CSHL.c **** * Return:
 684:.\Generated_Source\PSoC4/CapSense_CSHL.c **** *  This API returns the baseline value of the sensor indicated by an argument.
ARM GAS  C:\Users\IEUser\AppData\Local\Temp\cctak5Pf.s 			page 28


 685:.\Generated_Source\PSoC4/CapSense_CSHL.c **** *
 686:.\Generated_Source\PSoC4/CapSense_CSHL.c **** * Global Variables:
 687:.\Generated_Source\PSoC4/CapSense_CSHL.c **** *  CapSense_sensorBaseline[] - the array with an initial values by scanning
 688:.\Generated_Source\PSoC4/CapSense_CSHL.c **** * 
 689:.\Generated_Source\PSoC4/CapSense_CSHL.c **** * Side Effects:
 690:.\Generated_Source\PSoC4/CapSense_CSHL.c **** *  None
 691:.\Generated_Source\PSoC4/CapSense_CSHL.c **** *
 692:.\Generated_Source\PSoC4/CapSense_CSHL.c **** *******************************************************************************/
 693:.\Generated_Source\PSoC4/CapSense_CSHL.c **** uint16 CapSense_GetBaselineData(uint32 sensor)
 694:.\Generated_Source\PSoC4/CapSense_CSHL.c **** {
 839              		.loc 1 694 0
 840              		.cfi_startproc
 841 0000 80B5     		push	{r7, lr}
 842              		.cfi_def_cfa_offset 8
 843              		.cfi_offset 7, -8
 844              		.cfi_offset 14, -4
 845 0002 82B0     		sub	sp, sp, #8
 846              		.cfi_def_cfa_offset 16
 847 0004 00AF     		add	r7, sp, #0
 848              		.cfi_def_cfa_register 7
 849 0006 7860     		str	r0, [r7, #4]
 695:.\Generated_Source\PSoC4/CapSense_CSHL.c **** 	return (CapSense_sensorBaseline[sensor]);
 850              		.loc 1 695 0
 851 0008 034B     		ldr	r3, .L46
 852 000a 7A68     		ldr	r2, [r7, #4]
 853 000c 5200     		lsl	r2, r2, #1
 854 000e D35A     		ldrh	r3, [r2, r3]
 696:.\Generated_Source\PSoC4/CapSense_CSHL.c **** }
 855              		.loc 1 696 0
 856 0010 181C     		mov	r0, r3
 857 0012 BD46     		mov	sp, r7
 858 0014 02B0     		add	sp, sp, #8
 859              		@ sp needed
 860 0016 80BD     		pop	{r7, pc}
 861              	.L47:
 862              		.align	2
 863              	.L46:
 864 0018 00000000 		.word	CapSense_sensorBaseline
 865              		.cfi_endproc
 866              	.LFE41:
 867              		.size	CapSense_GetBaselineData, .-CapSense_GetBaselineData
 868              		.section	.text.CapSense_SetBaselineData,"ax",%progbits
 869              		.align	2
 870              		.global	CapSense_SetBaselineData
 871              		.code	16
 872              		.thumb_func
 873              		.type	CapSense_SetBaselineData, %function
 874              	CapSense_SetBaselineData:
 875              	.LFB42:
 697:.\Generated_Source\PSoC4/CapSense_CSHL.c **** 
 698:.\Generated_Source\PSoC4/CapSense_CSHL.c **** 
 699:.\Generated_Source\PSoC4/CapSense_CSHL.c **** /*******************************************************************************
 700:.\Generated_Source\PSoC4/CapSense_CSHL.c **** * Function Name: CapSense_SetBaselineData
 701:.\Generated_Source\PSoC4/CapSense_CSHL.c **** ********************************************************************************
 702:.\Generated_Source\PSoC4/CapSense_CSHL.c **** *
 703:.\Generated_Source\PSoC4/CapSense_CSHL.c **** * Summary:
 704:.\Generated_Source\PSoC4/CapSense_CSHL.c **** *  This API writes the data value passed as an argument to the sensor baseline array.
ARM GAS  C:\Users\IEUser\AppData\Local\Temp\cctak5Pf.s 			page 29


 705:.\Generated_Source\PSoC4/CapSense_CSHL.c **** *
 706:.\Generated_Source\PSoC4/CapSense_CSHL.c **** * Parameters:
 707:.\Generated_Source\PSoC4/CapSense_CSHL.c **** *  sensor:  Sensor number.
 708:.\Generated_Source\PSoC4/CapSense_CSHL.c **** *  data:    Sensor baseline.
 709:.\Generated_Source\PSoC4/CapSense_CSHL.c **** *
 710:.\Generated_Source\PSoC4/CapSense_CSHL.c **** * Return:
 711:.\Generated_Source\PSoC4/CapSense_CSHL.c **** *  None.
 712:.\Generated_Source\PSoC4/CapSense_CSHL.c **** *
 713:.\Generated_Source\PSoC4/CapSense_CSHL.c **** * Global Variables:
 714:.\Generated_Source\PSoC4/CapSense_CSHL.c **** *  CapSense_sensorBaseline[] - the array with initial values by scanning
 715:.\Generated_Source\PSoC4/CapSense_CSHL.c **** * 
 716:.\Generated_Source\PSoC4/CapSense_CSHL.c **** * Side Effects:
 717:.\Generated_Source\PSoC4/CapSense_CSHL.c **** *  None
 718:.\Generated_Source\PSoC4/CapSense_CSHL.c **** *
 719:.\Generated_Source\PSoC4/CapSense_CSHL.c **** *******************************************************************************/
 720:.\Generated_Source\PSoC4/CapSense_CSHL.c **** void CapSense_SetBaselineData(uint32 sensor, uint16 data)
 721:.\Generated_Source\PSoC4/CapSense_CSHL.c **** {
 876              		.loc 1 721 0
 877              		.cfi_startproc
 878 0000 80B5     		push	{r7, lr}
 879              		.cfi_def_cfa_offset 8
 880              		.cfi_offset 7, -8
 881              		.cfi_offset 14, -4
 882 0002 82B0     		sub	sp, sp, #8
 883              		.cfi_def_cfa_offset 16
 884 0004 00AF     		add	r7, sp, #0
 885              		.cfi_def_cfa_register 7
 886 0006 7860     		str	r0, [r7, #4]
 887 0008 0A1C     		mov	r2, r1
 888 000a BB1C     		add	r3, r7, #2
 889 000c 1A80     		strh	r2, [r3]
 722:.\Generated_Source\PSoC4/CapSense_CSHL.c **** 	CapSense_sensorBaseline[sensor] = data;
 890              		.loc 1 722 0
 891 000e 044B     		ldr	r3, .L49
 892 0010 7A68     		ldr	r2, [r7, #4]
 893 0012 5200     		lsl	r2, r2, #1
 894 0014 B91C     		add	r1, r7, #2
 895 0016 0988     		ldrh	r1, [r1]
 896 0018 D152     		strh	r1, [r2, r3]
 723:.\Generated_Source\PSoC4/CapSense_CSHL.c **** }
 897              		.loc 1 723 0
 898 001a BD46     		mov	sp, r7
 899 001c 02B0     		add	sp, sp, #8
 900              		@ sp needed
 901 001e 80BD     		pop	{r7, pc}
 902              	.L50:
 903              		.align	2
 904              	.L49:
 905 0020 00000000 		.word	CapSense_sensorBaseline
 906              		.cfi_endproc
 907              	.LFE42:
 908              		.size	CapSense_SetBaselineData, .-CapSense_SetBaselineData
 909              		.section	.text.CapSense_GetDiffCountData,"ax",%progbits
 910              		.align	2
 911              		.global	CapSense_GetDiffCountData
 912              		.code	16
 913              		.thumb_func
ARM GAS  C:\Users\IEUser\AppData\Local\Temp\cctak5Pf.s 			page 30


 914              		.type	CapSense_GetDiffCountData, %function
 915              	CapSense_GetDiffCountData:
 916              	.LFB43:
 724:.\Generated_Source\PSoC4/CapSense_CSHL.c **** 
 725:.\Generated_Source\PSoC4/CapSense_CSHL.c **** 
 726:.\Generated_Source\PSoC4/CapSense_CSHL.c **** /*******************************************************************************
 727:.\Generated_Source\PSoC4/CapSense_CSHL.c **** * Function Name: CapSense_GetDiffCountData
 728:.\Generated_Source\PSoC4/CapSense_CSHL.c **** ********************************************************************************
 729:.\Generated_Source\PSoC4/CapSense_CSHL.c **** *
 730:.\Generated_Source\PSoC4/CapSense_CSHL.c **** * Summary:
 731:.\Generated_Source\PSoC4/CapSense_CSHL.c **** *  This function returns the Sensor Signal from the component.
 732:.\Generated_Source\PSoC4/CapSense_CSHL.c **** *
 733:.\Generated_Source\PSoC4/CapSense_CSHL.c **** * Parameters:
 734:.\Generated_Source\PSoC4/CapSense_CSHL.c **** *  sensor:  Sensor number.
 735:.\Generated_Source\PSoC4/CapSense_CSHL.c **** *
 736:.\Generated_Source\PSoC4/CapSense_CSHL.c **** * Return:
 737:.\Generated_Source\PSoC4/CapSense_CSHL.c **** *  This API returns the difference count value of the sensor indicated by the 
 738:.\Generated_Source\PSoC4/CapSense_CSHL.c **** *  argument. 
 739:.\Generated_Source\PSoC4/CapSense_CSHL.c **** *
 740:.\Generated_Source\PSoC4/CapSense_CSHL.c **** * Global Variables:
 741:.\Generated_Source\PSoC4/CapSense_CSHL.c **** *  CapSense_sensorSignal[] - the array with difference counts for sensors
 742:.\Generated_Source\PSoC4/CapSense_CSHL.c **** * 
 743:.\Generated_Source\PSoC4/CapSense_CSHL.c **** * Side Effects:
 744:.\Generated_Source\PSoC4/CapSense_CSHL.c **** *  None
 745:.\Generated_Source\PSoC4/CapSense_CSHL.c **** *
 746:.\Generated_Source\PSoC4/CapSense_CSHL.c **** *******************************************************************************/
 747:.\Generated_Source\PSoC4/CapSense_CSHL.c **** uint8 CapSense_GetDiffCountData(uint32 sensor)
 748:.\Generated_Source\PSoC4/CapSense_CSHL.c **** {
 917              		.loc 1 748 0
 918              		.cfi_startproc
 919 0000 80B5     		push	{r7, lr}
 920              		.cfi_def_cfa_offset 8
 921              		.cfi_offset 7, -8
 922              		.cfi_offset 14, -4
 923 0002 82B0     		sub	sp, sp, #8
 924              		.cfi_def_cfa_offset 16
 925 0004 00AF     		add	r7, sp, #0
 926              		.cfi_def_cfa_register 7
 927 0006 7860     		str	r0, [r7, #4]
 749:.\Generated_Source\PSoC4/CapSense_CSHL.c **** 	return (CapSense_sensorSignal[sensor]);
 928              		.loc 1 749 0
 929 0008 034A     		ldr	r2, .L53
 930 000a 7B68     		ldr	r3, [r7, #4]
 931 000c D318     		add	r3, r2, r3
 932 000e 1B78     		ldrb	r3, [r3]
 750:.\Generated_Source\PSoC4/CapSense_CSHL.c **** }
 933              		.loc 1 750 0
 934 0010 181C     		mov	r0, r3
 935 0012 BD46     		mov	sp, r7
 936 0014 02B0     		add	sp, sp, #8
 937              		@ sp needed
 938 0016 80BD     		pop	{r7, pc}
 939              	.L54:
 940              		.align	2
 941              	.L53:
 942 0018 00000000 		.word	CapSense_sensorSignal
 943              		.cfi_endproc
ARM GAS  C:\Users\IEUser\AppData\Local\Temp\cctak5Pf.s 			page 31


 944              	.LFE43:
 945              		.size	CapSense_GetDiffCountData, .-CapSense_GetDiffCountData
 946              		.section	.text.CapSense_SetDiffCountData,"ax",%progbits
 947              		.align	2
 948              		.global	CapSense_SetDiffCountData
 949              		.code	16
 950              		.thumb_func
 951              		.type	CapSense_SetDiffCountData, %function
 952              	CapSense_SetDiffCountData:
 953              	.LFB44:
 751:.\Generated_Source\PSoC4/CapSense_CSHL.c **** 
 752:.\Generated_Source\PSoC4/CapSense_CSHL.c **** 
 753:.\Generated_Source\PSoC4/CapSense_CSHL.c **** /*******************************************************************************
 754:.\Generated_Source\PSoC4/CapSense_CSHL.c **** * Function Name: CapSense_SetDiffCountData
 755:.\Generated_Source\PSoC4/CapSense_CSHL.c **** ********************************************************************************
 756:.\Generated_Source\PSoC4/CapSense_CSHL.c **** *
 757:.\Generated_Source\PSoC4/CapSense_CSHL.c **** * Summary:
 758:.\Generated_Source\PSoC4/CapSense_CSHL.c **** *  This API writes the data value passed as an argument to the sensor signal array.
 759:.\Generated_Source\PSoC4/CapSense_CSHL.c **** *
 760:.\Generated_Source\PSoC4/CapSense_CSHL.c **** * Parameters:
 761:.\Generated_Source\PSoC4/CapSense_CSHL.c **** *  sensor:  Sensor number.
 762:.\Generated_Source\PSoC4/CapSense_CSHL.c **** *  value:   Sensor signal.
 763:.\Generated_Source\PSoC4/CapSense_CSHL.c **** *
 764:.\Generated_Source\PSoC4/CapSense_CSHL.c **** * Return:
 765:.\Generated_Source\PSoC4/CapSense_CSHL.c **** *  None. 
 766:.\Generated_Source\PSoC4/CapSense_CSHL.c **** *
 767:.\Generated_Source\PSoC4/CapSense_CSHL.c **** * Global Variables:
 768:.\Generated_Source\PSoC4/CapSense_CSHL.c **** *  CapSense_sensorSignal[] - the array with difference counts for sensors
 769:.\Generated_Source\PSoC4/CapSense_CSHL.c **** * 
 770:.\Generated_Source\PSoC4/CapSense_CSHL.c **** * Side Effects:
 771:.\Generated_Source\PSoC4/CapSense_CSHL.c **** *  None
 772:.\Generated_Source\PSoC4/CapSense_CSHL.c **** *
 773:.\Generated_Source\PSoC4/CapSense_CSHL.c **** *******************************************************************************/
 774:.\Generated_Source\PSoC4/CapSense_CSHL.c **** void CapSense_SetDiffCountData(uint32 sensor, uint8 value)
 775:.\Generated_Source\PSoC4/CapSense_CSHL.c **** {
 954              		.loc 1 775 0
 955              		.cfi_startproc
 956 0000 80B5     		push	{r7, lr}
 957              		.cfi_def_cfa_offset 8
 958              		.cfi_offset 7, -8
 959              		.cfi_offset 14, -4
 960 0002 82B0     		sub	sp, sp, #8
 961              		.cfi_def_cfa_offset 16
 962 0004 00AF     		add	r7, sp, #0
 963              		.cfi_def_cfa_register 7
 964 0006 7860     		str	r0, [r7, #4]
 965 0008 0A1C     		mov	r2, r1
 966 000a FB1C     		add	r3, r7, #3
 967 000c 1A70     		strb	r2, [r3]
 776:.\Generated_Source\PSoC4/CapSense_CSHL.c ****     CapSense_sensorSignal[sensor] = value;
 968              		.loc 1 776 0
 969 000e 044A     		ldr	r2, .L56
 970 0010 7B68     		ldr	r3, [r7, #4]
 971 0012 D318     		add	r3, r2, r3
 972 0014 FA1C     		add	r2, r7, #3
 973 0016 1278     		ldrb	r2, [r2]
 974 0018 1A70     		strb	r2, [r3]
ARM GAS  C:\Users\IEUser\AppData\Local\Temp\cctak5Pf.s 			page 32


 777:.\Generated_Source\PSoC4/CapSense_CSHL.c **** }
 975              		.loc 1 777 0
 976 001a BD46     		mov	sp, r7
 977 001c 02B0     		add	sp, sp, #8
 978              		@ sp needed
 979 001e 80BD     		pop	{r7, pc}
 980              	.L57:
 981              		.align	2
 982              	.L56:
 983 0020 00000000 		.word	CapSense_sensorSignal
 984              		.cfi_endproc
 985              	.LFE44:
 986              		.size	CapSense_SetDiffCountData, .-CapSense_SetDiffCountData
 987              		.section	.text.CapSense_GetFingerThreshold,"ax",%progbits
 988              		.align	2
 989              		.global	CapSense_GetFingerThreshold
 990              		.code	16
 991              		.thumb_func
 992              		.type	CapSense_GetFingerThreshold, %function
 993              	CapSense_GetFingerThreshold:
 994              	.LFB45:
 778:.\Generated_Source\PSoC4/CapSense_CSHL.c **** 
 779:.\Generated_Source\PSoC4/CapSense_CSHL.c **** 
 780:.\Generated_Source\PSoC4/CapSense_CSHL.c **** /*******************************************************************************
 781:.\Generated_Source\PSoC4/CapSense_CSHL.c **** * Function Name: CapSense_GetFingerThreshold
 782:.\Generated_Source\PSoC4/CapSense_CSHL.c **** ********************************************************************************
 783:.\Generated_Source\PSoC4/CapSense_CSHL.c **** *
 784:.\Generated_Source\PSoC4/CapSense_CSHL.c **** * Summary:
 785:.\Generated_Source\PSoC4/CapSense_CSHL.c **** *  This function reads the finger threshold from the component.
 786:.\Generated_Source\PSoC4/CapSense_CSHL.c **** *
 787:.\Generated_Source\PSoC4/CapSense_CSHL.c **** * Parameters:
 788:.\Generated_Source\PSoC4/CapSense_CSHL.c **** *  widget:  widget number.
 789:.\Generated_Source\PSoC4/CapSense_CSHL.c **** *
 790:.\Generated_Source\PSoC4/CapSense_CSHL.c **** * Return:
 791:.\Generated_Source\PSoC4/CapSense_CSHL.c **** *  This API returns the finger threshold of the widget indicated by the argument. 
 792:.\Generated_Source\PSoC4/CapSense_CSHL.c **** *
 793:.\Generated_Source\PSoC4/CapSense_CSHL.c **** * Global Variables:
 794:.\Generated_Source\PSoC4/CapSense_CSHL.c **** *  CapSense_fingerThreshold[] - This array contains the level of signal 
 795:.\Generated_Source\PSoC4/CapSense_CSHL.c **** *  for each widget that is determined if a finger is present on the widget.
 796:.\Generated_Source\PSoC4/CapSense_CSHL.c **** *
 797:.\Generated_Source\PSoC4/CapSense_CSHL.c **** * Side Effects:
 798:.\Generated_Source\PSoC4/CapSense_CSHL.c **** *  None
 799:.\Generated_Source\PSoC4/CapSense_CSHL.c **** *
 800:.\Generated_Source\PSoC4/CapSense_CSHL.c **** *******************************************************************************/
 801:.\Generated_Source\PSoC4/CapSense_CSHL.c **** uint8 CapSense_GetFingerThreshold(uint32 widget)
 802:.\Generated_Source\PSoC4/CapSense_CSHL.c **** {
 995              		.loc 1 802 0
 996              		.cfi_startproc
 997 0000 80B5     		push	{r7, lr}
 998              		.cfi_def_cfa_offset 8
 999              		.cfi_offset 7, -8
 1000              		.cfi_offset 14, -4
 1001 0002 82B0     		sub	sp, sp, #8
 1002              		.cfi_def_cfa_offset 16
 1003 0004 00AF     		add	r7, sp, #0
 1004              		.cfi_def_cfa_register 7
 1005 0006 7860     		str	r0, [r7, #4]
ARM GAS  C:\Users\IEUser\AppData\Local\Temp\cctak5Pf.s 			page 33


 803:.\Generated_Source\PSoC4/CapSense_CSHL.c **** 	return(CapSense_fingerThreshold[widget]);
 1006              		.loc 1 803 0
 1007 0008 034A     		ldr	r2, .L60
 1008 000a 7B68     		ldr	r3, [r7, #4]
 1009 000c D318     		add	r3, r2, r3
 1010 000e 1B78     		ldrb	r3, [r3]
 804:.\Generated_Source\PSoC4/CapSense_CSHL.c **** }
 1011              		.loc 1 804 0
 1012 0010 181C     		mov	r0, r3
 1013 0012 BD46     		mov	sp, r7
 1014 0014 02B0     		add	sp, sp, #8
 1015              		@ sp needed
 1016 0016 80BD     		pop	{r7, pc}
 1017              	.L61:
 1018              		.align	2
 1019              	.L60:
 1020 0018 00000000 		.word	CapSense_fingerThreshold
 1021              		.cfi_endproc
 1022              	.LFE45:
 1023              		.size	CapSense_GetFingerThreshold, .-CapSense_GetFingerThreshold
 1024              		.section	.text.CapSense_GetNoiseThreshold,"ax",%progbits
 1025              		.align	2
 1026              		.global	CapSense_GetNoiseThreshold
 1027              		.code	16
 1028              		.thumb_func
 1029              		.type	CapSense_GetNoiseThreshold, %function
 1030              	CapSense_GetNoiseThreshold:
 1031              	.LFB46:
 805:.\Generated_Source\PSoC4/CapSense_CSHL.c **** 
 806:.\Generated_Source\PSoC4/CapSense_CSHL.c **** 
 807:.\Generated_Source\PSoC4/CapSense_CSHL.c **** /*******************************************************************************
 808:.\Generated_Source\PSoC4/CapSense_CSHL.c **** * Function Name: CapSense_GetNoiseThreshold
 809:.\Generated_Source\PSoC4/CapSense_CSHL.c **** ********************************************************************************
 810:.\Generated_Source\PSoC4/CapSense_CSHL.c **** *
 811:.\Generated_Source\PSoC4/CapSense_CSHL.c **** * Summary:
 812:.\Generated_Source\PSoC4/CapSense_CSHL.c **** *  This function reads the noise threshold from the component.
 813:.\Generated_Source\PSoC4/CapSense_CSHL.c **** *
 814:.\Generated_Source\PSoC4/CapSense_CSHL.c **** * Parameters:
 815:.\Generated_Source\PSoC4/CapSense_CSHL.c **** *  widget:  widget number.
 816:.\Generated_Source\PSoC4/CapSense_CSHL.c **** *
 817:.\Generated_Source\PSoC4/CapSense_CSHL.c **** * Return:
 818:.\Generated_Source\PSoC4/CapSense_CSHL.c **** *  This API returns the noise threshold of the widget indicated by the argument. 
 819:.\Generated_Source\PSoC4/CapSense_CSHL.c **** *
 820:.\Generated_Source\PSoC4/CapSense_CSHL.c **** * Global Variables:
 821:.\Generated_Source\PSoC4/CapSense_CSHL.c **** *  CapSense_noiseThreshold[] - This array contains the level of signal 
 822:.\Generated_Source\PSoC4/CapSense_CSHL.c **** *  for each widget that determines the level of noise in the capacitive scan.
 823:.\Generated_Source\PSoC4/CapSense_CSHL.c **** * 
 824:.\Generated_Source\PSoC4/CapSense_CSHL.c **** * Side Effects:
 825:.\Generated_Source\PSoC4/CapSense_CSHL.c **** *  None
 826:.\Generated_Source\PSoC4/CapSense_CSHL.c **** *
 827:.\Generated_Source\PSoC4/CapSense_CSHL.c **** *******************************************************************************/
 828:.\Generated_Source\PSoC4/CapSense_CSHL.c **** uint8 CapSense_GetNoiseThreshold(uint32 widget)
 829:.\Generated_Source\PSoC4/CapSense_CSHL.c **** {
 1032              		.loc 1 829 0
 1033              		.cfi_startproc
 1034 0000 80B5     		push	{r7, lr}
 1035              		.cfi_def_cfa_offset 8
ARM GAS  C:\Users\IEUser\AppData\Local\Temp\cctak5Pf.s 			page 34


 1036              		.cfi_offset 7, -8
 1037              		.cfi_offset 14, -4
 1038 0002 82B0     		sub	sp, sp, #8
 1039              		.cfi_def_cfa_offset 16
 1040 0004 00AF     		add	r7, sp, #0
 1041              		.cfi_def_cfa_register 7
 1042 0006 7860     		str	r0, [r7, #4]
 830:.\Generated_Source\PSoC4/CapSense_CSHL.c **** 	return (CapSense_noiseThreshold[widget]);
 1043              		.loc 1 830 0
 1044 0008 034A     		ldr	r2, .L64
 1045 000a 7B68     		ldr	r3, [r7, #4]
 1046 000c D318     		add	r3, r2, r3
 1047 000e 1B78     		ldrb	r3, [r3]
 831:.\Generated_Source\PSoC4/CapSense_CSHL.c **** }
 1048              		.loc 1 831 0
 1049 0010 181C     		mov	r0, r3
 1050 0012 BD46     		mov	sp, r7
 1051 0014 02B0     		add	sp, sp, #8
 1052              		@ sp needed
 1053 0016 80BD     		pop	{r7, pc}
 1054              	.L65:
 1055              		.align	2
 1056              	.L64:
 1057 0018 00000000 		.word	CapSense_noiseThreshold
 1058              		.cfi_endproc
 1059              	.LFE46:
 1060              		.size	CapSense_GetNoiseThreshold, .-CapSense_GetNoiseThreshold
 1061              		.section	.text.CapSense_GetFingerHysteresis,"ax",%progbits
 1062              		.align	2
 1063              		.global	CapSense_GetFingerHysteresis
 1064              		.code	16
 1065              		.thumb_func
 1066              		.type	CapSense_GetFingerHysteresis, %function
 1067              	CapSense_GetFingerHysteresis:
 1068              	.LFB47:
 832:.\Generated_Source\PSoC4/CapSense_CSHL.c **** 
 833:.\Generated_Source\PSoC4/CapSense_CSHL.c **** 
 834:.\Generated_Source\PSoC4/CapSense_CSHL.c **** /*******************************************************************************
 835:.\Generated_Source\PSoC4/CapSense_CSHL.c **** * Function Name: CapSense_GetFingerHysteresis
 836:.\Generated_Source\PSoC4/CapSense_CSHL.c **** ********************************************************************************
 837:.\Generated_Source\PSoC4/CapSense_CSHL.c **** *
 838:.\Generated_Source\PSoC4/CapSense_CSHL.c **** * Summary:
 839:.\Generated_Source\PSoC4/CapSense_CSHL.c **** *  This function reads the Hysteresis value from the component.
 840:.\Generated_Source\PSoC4/CapSense_CSHL.c **** *
 841:.\Generated_Source\PSoC4/CapSense_CSHL.c **** * Parameters:
 842:.\Generated_Source\PSoC4/CapSense_CSHL.c **** *  widget:  widget number.
 843:.\Generated_Source\PSoC4/CapSense_CSHL.c **** *
 844:.\Generated_Source\PSoC4/CapSense_CSHL.c **** * Return:
 845:.\Generated_Source\PSoC4/CapSense_CSHL.c **** *  This API returns the Hysteresis of the widget indicated by the argument. 
 846:.\Generated_Source\PSoC4/CapSense_CSHL.c **** *
 847:.\Generated_Source\PSoC4/CapSense_CSHL.c **** * Global Variables:
 848:.\Generated_Source\PSoC4/CapSense_CSHL.c **** *  CapSense_hysteresis[] - This array contains the hysteresis value 
 849:.\Generated_Source\PSoC4/CapSense_CSHL.c **** *   for each widget.
 850:.\Generated_Source\PSoC4/CapSense_CSHL.c **** *  CapSense_widgetNumberSld - structure with dynamic sliders' parameters.
 851:.\Generated_Source\PSoC4/CapSense_CSHL.c **** *
 852:.\Generated_Source\PSoC4/CapSense_CSHL.c **** * Side Effects:
 853:.\Generated_Source\PSoC4/CapSense_CSHL.c **** *  None
ARM GAS  C:\Users\IEUser\AppData\Local\Temp\cctak5Pf.s 			page 35


 854:.\Generated_Source\PSoC4/CapSense_CSHL.c **** *
 855:.\Generated_Source\PSoC4/CapSense_CSHL.c **** *******************************************************************************/
 856:.\Generated_Source\PSoC4/CapSense_CSHL.c **** uint8 CapSense_GetFingerHysteresis(uint32 widget)
 857:.\Generated_Source\PSoC4/CapSense_CSHL.c **** {
 1069              		.loc 1 857 0
 1070              		.cfi_startproc
 1071 0000 80B5     		push	{r7, lr}
 1072              		.cfi_def_cfa_offset 8
 1073              		.cfi_offset 7, -8
 1074              		.cfi_offset 14, -4
 1075 0002 82B0     		sub	sp, sp, #8
 1076              		.cfi_def_cfa_offset 16
 1077 0004 00AF     		add	r7, sp, #0
 1078              		.cfi_def_cfa_register 7
 1079 0006 7860     		str	r0, [r7, #4]
 858:.\Generated_Source\PSoC4/CapSense_CSHL.c **** 	return(CapSense_hysteresis[widget]);
 1080              		.loc 1 858 0
 1081 0008 034A     		ldr	r2, .L68
 1082 000a 7B68     		ldr	r3, [r7, #4]
 1083 000c D318     		add	r3, r2, r3
 1084 000e 1B78     		ldrb	r3, [r3]
 859:.\Generated_Source\PSoC4/CapSense_CSHL.c **** }
 1085              		.loc 1 859 0
 1086 0010 181C     		mov	r0, r3
 1087 0012 BD46     		mov	sp, r7
 1088 0014 02B0     		add	sp, sp, #8
 1089              		@ sp needed
 1090 0016 80BD     		pop	{r7, pc}
 1091              	.L69:
 1092              		.align	2
 1093              	.L68:
 1094 0018 00000000 		.word	CapSense_hysteresis
 1095              		.cfi_endproc
 1096              	.LFE47:
 1097              		.size	CapSense_GetFingerHysteresis, .-CapSense_GetFingerHysteresis
 1098              		.section	.text.CapSense_GetNegativeNoiseThreshold,"ax",%progbits
 1099              		.align	2
 1100              		.global	CapSense_GetNegativeNoiseThreshold
 1101              		.code	16
 1102              		.thumb_func
 1103              		.type	CapSense_GetNegativeNoiseThreshold, %function
 1104              	CapSense_GetNegativeNoiseThreshold:
 1105              	.LFB48:
 860:.\Generated_Source\PSoC4/CapSense_CSHL.c **** 
 861:.\Generated_Source\PSoC4/CapSense_CSHL.c **** 
 862:.\Generated_Source\PSoC4/CapSense_CSHL.c **** /*******************************************************************************
 863:.\Generated_Source\PSoC4/CapSense_CSHL.c **** * Function Name: CapSense_GetNegativeNoiseThreshold
 864:.\Generated_Source\PSoC4/CapSense_CSHL.c **** ********************************************************************************
 865:.\Generated_Source\PSoC4/CapSense_CSHL.c **** *
 866:.\Generated_Source\PSoC4/CapSense_CSHL.c **** * Summary:
 867:.\Generated_Source\PSoC4/CapSense_CSHL.c **** *  This function reads the negative noise threshold from the component.
 868:.\Generated_Source\PSoC4/CapSense_CSHL.c **** *
 869:.\Generated_Source\PSoC4/CapSense_CSHL.c **** * Parameters: 
 870:.\Generated_Source\PSoC4/CapSense_CSHL.c **** *  None.
 871:.\Generated_Source\PSoC4/CapSense_CSHL.c **** *
 872:.\Generated_Source\PSoC4/CapSense_CSHL.c **** * Return Value: 
 873:.\Generated_Source\PSoC4/CapSense_CSHL.c **** *  This API returns the negative noise threshold
ARM GAS  C:\Users\IEUser\AppData\Local\Temp\cctak5Pf.s 			page 36


 874:.\Generated_Source\PSoC4/CapSense_CSHL.c **** *
 875:.\Generated_Source\PSoC4/CapSense_CSHL.c **** * Global Variables:
 876:.\Generated_Source\PSoC4/CapSense_CSHL.c **** *  CapSense_negativeNoiseThreshold - This variable specifies the negative 
 877:.\Generated_Source\PSoC4/CapSense_CSHL.c **** *   difference between the raw count and baseline levels for Baseline resetting
 878:.\Generated_Source\PSoC4/CapSense_CSHL.c **** *   to the raw count level.
 879:.\Generated_Source\PSoC4/CapSense_CSHL.c **** * 
 880:.\Generated_Source\PSoC4/CapSense_CSHL.c **** * Side Effects:
 881:.\Generated_Source\PSoC4/CapSense_CSHL.c **** *  None
 882:.\Generated_Source\PSoC4/CapSense_CSHL.c **** *
 883:.\Generated_Source\PSoC4/CapSense_CSHL.c **** *******************************************************************************/
 884:.\Generated_Source\PSoC4/CapSense_CSHL.c **** uint8 CapSense_GetNegativeNoiseThreshold(uint32 widget)
 885:.\Generated_Source\PSoC4/CapSense_CSHL.c **** {
 1106              		.loc 1 885 0
 1107              		.cfi_startproc
 1108 0000 80B5     		push	{r7, lr}
 1109              		.cfi_def_cfa_offset 8
 1110              		.cfi_offset 7, -8
 1111              		.cfi_offset 14, -4
 1112 0002 82B0     		sub	sp, sp, #8
 1113              		.cfi_def_cfa_offset 16
 1114 0004 00AF     		add	r7, sp, #0
 1115              		.cfi_def_cfa_register 7
 1116 0006 7860     		str	r0, [r7, #4]
 886:.\Generated_Source\PSoC4/CapSense_CSHL.c **** #if (CapSense_TUNING_METHOD != CapSense__TUNING_NONE)
 887:.\Generated_Source\PSoC4/CapSense_CSHL.c **** 	return(CapSense_negativeNoiseThreshold[widget]);
 1117              		.loc 1 887 0
 1118 0008 034A     		ldr	r2, .L72
 1119 000a 7B68     		ldr	r3, [r7, #4]
 1120 000c D318     		add	r3, r2, r3
 1121 000e 1B78     		ldrb	r3, [r3]
 888:.\Generated_Source\PSoC4/CapSense_CSHL.c **** #else
 889:.\Generated_Source\PSoC4/CapSense_CSHL.c **** 	return(CapSense_NEGATIVE_NOISE_THRESHOLD);
 890:.\Generated_Source\PSoC4/CapSense_CSHL.c **** #endif /* (CapSense_TUNING_METHOD != CapSense__TUNING_NONE) */ 
 891:.\Generated_Source\PSoC4/CapSense_CSHL.c **** }
 1122              		.loc 1 891 0
 1123 0010 181C     		mov	r0, r3
 1124 0012 BD46     		mov	sp, r7
 1125 0014 02B0     		add	sp, sp, #8
 1126              		@ sp needed
 1127 0016 80BD     		pop	{r7, pc}
 1128              	.L73:
 1129              		.align	2
 1130              	.L72:
 1131 0018 00000000 		.word	CapSense_negativeNoiseThreshold
 1132              		.cfi_endproc
 1133              	.LFE48:
 1134              		.size	CapSense_GetNegativeNoiseThreshold, .-CapSense_GetNegativeNoiseThreshold
 1135              		.section	.text.CapSense_SetFingerThreshold,"ax",%progbits
 1136              		.align	2
 1137              		.global	CapSense_SetFingerThreshold
 1138              		.code	16
 1139              		.thumb_func
 1140              		.type	CapSense_SetFingerThreshold, %function
 1141              	CapSense_SetFingerThreshold:
 1142              	.LFB49:
 892:.\Generated_Source\PSoC4/CapSense_CSHL.c **** 
 893:.\Generated_Source\PSoC4/CapSense_CSHL.c **** 
ARM GAS  C:\Users\IEUser\AppData\Local\Temp\cctak5Pf.s 			page 37


 894:.\Generated_Source\PSoC4/CapSense_CSHL.c **** #if(CapSense_TUNING_METHOD != CapSense__TUNING_NONE)
 895:.\Generated_Source\PSoC4/CapSense_CSHL.c **** 	/*******************************************************************************
 896:.\Generated_Source\PSoC4/CapSense_CSHL.c **** 	* Function Name: CapSense_SetFingerThreshold
 897:.\Generated_Source\PSoC4/CapSense_CSHL.c **** 	********************************************************************************
 898:.\Generated_Source\PSoC4/CapSense_CSHL.c **** 	*
 899:.\Generated_Source\PSoC4/CapSense_CSHL.c **** 	* Summary:
 900:.\Generated_Source\PSoC4/CapSense_CSHL.c **** 	*  This API sets the finger threshold value for a widget. 
 901:.\Generated_Source\PSoC4/CapSense_CSHL.c **** 	*
 902:.\Generated_Source\PSoC4/CapSense_CSHL.c **** 	* Parameters: 
 903:.\Generated_Source\PSoC4/CapSense_CSHL.c **** 	*  sensorNumber:  widget index. 
 904:.\Generated_Source\PSoC4/CapSense_CSHL.c **** 	*  value:  Finger threshold value for the widget.
 905:.\Generated_Source\PSoC4/CapSense_CSHL.c **** 	*
 906:.\Generated_Source\PSoC4/CapSense_CSHL.c **** 	* Return Value: 
 907:.\Generated_Source\PSoC4/CapSense_CSHL.c **** 	*  None
 908:.\Generated_Source\PSoC4/CapSense_CSHL.c **** 	*
 909:.\Generated_Source\PSoC4/CapSense_CSHL.c **** 	* Global Variables:
 910:.\Generated_Source\PSoC4/CapSense_CSHL.c **** 	*  CapSense_fingerThreshold[] - This array contains the level of signal 
 911:.\Generated_Source\PSoC4/CapSense_CSHL.c **** 	*   for each widget that determines if a finger is present on the widget.
 912:.\Generated_Source\PSoC4/CapSense_CSHL.c **** 	* 
 913:.\Generated_Source\PSoC4/CapSense_CSHL.c **** 	* Side Effects:
 914:.\Generated_Source\PSoC4/CapSense_CSHL.c **** 	*  None
 915:.\Generated_Source\PSoC4/CapSense_CSHL.c **** 	*
 916:.\Generated_Source\PSoC4/CapSense_CSHL.c **** 	*******************************************************************************/
 917:.\Generated_Source\PSoC4/CapSense_CSHL.c **** 	void CapSense_SetFingerThreshold(uint32 widget, uint8 value)
 918:.\Generated_Source\PSoC4/CapSense_CSHL.c **** 	{	
 1143              		.loc 1 918 0
 1144              		.cfi_startproc
 1145 0000 80B5     		push	{r7, lr}
 1146              		.cfi_def_cfa_offset 8
 1147              		.cfi_offset 7, -8
 1148              		.cfi_offset 14, -4
 1149 0002 82B0     		sub	sp, sp, #8
 1150              		.cfi_def_cfa_offset 16
 1151 0004 00AF     		add	r7, sp, #0
 1152              		.cfi_def_cfa_register 7
 1153 0006 7860     		str	r0, [r7, #4]
 1154 0008 0A1C     		mov	r2, r1
 1155 000a FB1C     		add	r3, r7, #3
 1156 000c 1A70     		strb	r2, [r3]
 919:.\Generated_Source\PSoC4/CapSense_CSHL.c **** 		CapSense_fingerThreshold[widget] = value;
 1157              		.loc 1 919 0
 1158 000e 044A     		ldr	r2, .L75
 1159 0010 7B68     		ldr	r3, [r7, #4]
 1160 0012 D318     		add	r3, r2, r3
 1161 0014 FA1C     		add	r2, r7, #3
 1162 0016 1278     		ldrb	r2, [r2]
 1163 0018 1A70     		strb	r2, [r3]
 920:.\Generated_Source\PSoC4/CapSense_CSHL.c **** 	}
 1164              		.loc 1 920 0
 1165 001a BD46     		mov	sp, r7
 1166 001c 02B0     		add	sp, sp, #8
 1167              		@ sp needed
 1168 001e 80BD     		pop	{r7, pc}
 1169              	.L76:
 1170              		.align	2
 1171              	.L75:
 1172 0020 00000000 		.word	CapSense_fingerThreshold
ARM GAS  C:\Users\IEUser\AppData\Local\Temp\cctak5Pf.s 			page 38


 1173              		.cfi_endproc
 1174              	.LFE49:
 1175              		.size	CapSense_SetFingerThreshold, .-CapSense_SetFingerThreshold
 1176              		.section	.text.CapSense_SetNoiseThreshold,"ax",%progbits
 1177              		.align	2
 1178              		.global	CapSense_SetNoiseThreshold
 1179              		.code	16
 1180              		.thumb_func
 1181              		.type	CapSense_SetNoiseThreshold, %function
 1182              	CapSense_SetNoiseThreshold:
 1183              	.LFB50:
 921:.\Generated_Source\PSoC4/CapSense_CSHL.c **** 
 922:.\Generated_Source\PSoC4/CapSense_CSHL.c **** 
 923:.\Generated_Source\PSoC4/CapSense_CSHL.c **** 	/*******************************************************************************
 924:.\Generated_Source\PSoC4/CapSense_CSHL.c **** 	* Function Name: CapSense_SetNoiseThreshold
 925:.\Generated_Source\PSoC4/CapSense_CSHL.c **** 	********************************************************************************
 926:.\Generated_Source\PSoC4/CapSense_CSHL.c **** 	*
 927:.\Generated_Source\PSoC4/CapSense_CSHL.c **** 	* Summary:
 928:.\Generated_Source\PSoC4/CapSense_CSHL.c **** 	*  This API sets the Noise Threshold value for each widget.
 929:.\Generated_Source\PSoC4/CapSense_CSHL.c **** 	*
 930:.\Generated_Source\PSoC4/CapSense_CSHL.c **** 	* Parameters:
 931:.\Generated_Source\PSoC4/CapSense_CSHL.c **** 	*  widget:  Sensor index number.
 932:.\Generated_Source\PSoC4/CapSense_CSHL.c **** 	*  value:   Noise Threshold value for widget.
 933:.\Generated_Source\PSoC4/CapSense_CSHL.c **** 	*
 934:.\Generated_Source\PSoC4/CapSense_CSHL.c **** 	* Return Value: 
 935:.\Generated_Source\PSoC4/CapSense_CSHL.c **** 	*  None
 936:.\Generated_Source\PSoC4/CapSense_CSHL.c **** 	*
 937:.\Generated_Source\PSoC4/CapSense_CSHL.c **** 	* Global Variables:
 938:.\Generated_Source\PSoC4/CapSense_CSHL.c **** 	*  CapSense_noiseThreshold[] - This array contains the level of signal 
 939:.\Generated_Source\PSoC4/CapSense_CSHL.c **** 	*   for each widget that determines the level of noise in the capacitive scan.
 940:.\Generated_Source\PSoC4/CapSense_CSHL.c **** 	* 
 941:.\Generated_Source\PSoC4/CapSense_CSHL.c **** 	* Side Effects:
 942:.\Generated_Source\PSoC4/CapSense_CSHL.c **** 	*  None
 943:.\Generated_Source\PSoC4/CapSense_CSHL.c **** 	*
 944:.\Generated_Source\PSoC4/CapSense_CSHL.c **** 	*******************************************************************************/
 945:.\Generated_Source\PSoC4/CapSense_CSHL.c **** 	void CapSense_SetNoiseThreshold(uint32 widget, uint8 value)
 946:.\Generated_Source\PSoC4/CapSense_CSHL.c **** 	{
 1184              		.loc 1 946 0
 1185              		.cfi_startproc
 1186 0000 80B5     		push	{r7, lr}
 1187              		.cfi_def_cfa_offset 8
 1188              		.cfi_offset 7, -8
 1189              		.cfi_offset 14, -4
 1190 0002 82B0     		sub	sp, sp, #8
 1191              		.cfi_def_cfa_offset 16
 1192 0004 00AF     		add	r7, sp, #0
 1193              		.cfi_def_cfa_register 7
 1194 0006 7860     		str	r0, [r7, #4]
 1195 0008 0A1C     		mov	r2, r1
 1196 000a FB1C     		add	r3, r7, #3
 1197 000c 1A70     		strb	r2, [r3]
 947:.\Generated_Source\PSoC4/CapSense_CSHL.c **** 		CapSense_noiseThreshold[widget] = value;
 1198              		.loc 1 947 0
 1199 000e 044A     		ldr	r2, .L78
 1200 0010 7B68     		ldr	r3, [r7, #4]
 1201 0012 D318     		add	r3, r2, r3
 1202 0014 FA1C     		add	r2, r7, #3
ARM GAS  C:\Users\IEUser\AppData\Local\Temp\cctak5Pf.s 			page 39


 1203 0016 1278     		ldrb	r2, [r2]
 1204 0018 1A70     		strb	r2, [r3]
 948:.\Generated_Source\PSoC4/CapSense_CSHL.c **** 	}
 1205              		.loc 1 948 0
 1206 001a BD46     		mov	sp, r7
 1207 001c 02B0     		add	sp, sp, #8
 1208              		@ sp needed
 1209 001e 80BD     		pop	{r7, pc}
 1210              	.L79:
 1211              		.align	2
 1212              	.L78:
 1213 0020 00000000 		.word	CapSense_noiseThreshold
 1214              		.cfi_endproc
 1215              	.LFE50:
 1216              		.size	CapSense_SetNoiseThreshold, .-CapSense_SetNoiseThreshold
 1217              		.section	.text.CapSense_SetFingerHysteresis,"ax",%progbits
 1218              		.align	2
 1219              		.global	CapSense_SetFingerHysteresis
 1220              		.code	16
 1221              		.thumb_func
 1222              		.type	CapSense_SetFingerHysteresis, %function
 1223              	CapSense_SetFingerHysteresis:
 1224              	.LFB51:
 949:.\Generated_Source\PSoC4/CapSense_CSHL.c **** 
 950:.\Generated_Source\PSoC4/CapSense_CSHL.c **** 
 951:.\Generated_Source\PSoC4/CapSense_CSHL.c **** 	/*******************************************************************************
 952:.\Generated_Source\PSoC4/CapSense_CSHL.c **** 	* Function Name: CapSense_SetFingerHysteresis
 953:.\Generated_Source\PSoC4/CapSense_CSHL.c **** 	********************************************************************************
 954:.\Generated_Source\PSoC4/CapSense_CSHL.c **** 	*
 955:.\Generated_Source\PSoC4/CapSense_CSHL.c **** 	* Summary:
 956:.\Generated_Source\PSoC4/CapSense_CSHL.c **** 	*  This API sets the Hysteresis value of a widget
 957:.\Generated_Source\PSoC4/CapSense_CSHL.c **** 	*
 958:.\Generated_Source\PSoC4/CapSense_CSHL.c **** 	* Parameters: 
 959:.\Generated_Source\PSoC4/CapSense_CSHL.c **** 	*  value:  Hysteresis value for widgets.
 960:.\Generated_Source\PSoC4/CapSense_CSHL.c **** 	*  widget:  widget number
 961:.\Generated_Source\PSoC4/CapSense_CSHL.c **** 	*
 962:.\Generated_Source\PSoC4/CapSense_CSHL.c **** 	* Return Value: 
 963:.\Generated_Source\PSoC4/CapSense_CSHL.c **** 	*  None
 964:.\Generated_Source\PSoC4/CapSense_CSHL.c **** 	*
 965:.\Generated_Source\PSoC4/CapSense_CSHL.c **** 	* Global Variables:
 966:.\Generated_Source\PSoC4/CapSense_CSHL.c **** 	*  CapSense_hysteresis[] - This array contains the hysteresis value for each widget.
 967:.\Generated_Source\PSoC4/CapSense_CSHL.c **** 	*  CapSense_widgetNumberSld - structure with dynamic sliders' parameters.
 968:.\Generated_Source\PSoC4/CapSense_CSHL.c **** 	*
 969:.\Generated_Source\PSoC4/CapSense_CSHL.c **** 	* Side Effects:
 970:.\Generated_Source\PSoC4/CapSense_CSHL.c **** 	*  None
 971:.\Generated_Source\PSoC4/CapSense_CSHL.c **** 	*
 972:.\Generated_Source\PSoC4/CapSense_CSHL.c **** 	*******************************************************************************/
 973:.\Generated_Source\PSoC4/CapSense_CSHL.c **** 	void CapSense_SetFingerHysteresis(uint32 widget, uint8 value)
 974:.\Generated_Source\PSoC4/CapSense_CSHL.c **** 	{
 1225              		.loc 1 974 0
 1226              		.cfi_startproc
 1227 0000 80B5     		push	{r7, lr}
 1228              		.cfi_def_cfa_offset 8
 1229              		.cfi_offset 7, -8
 1230              		.cfi_offset 14, -4
 1231 0002 82B0     		sub	sp, sp, #8
 1232              		.cfi_def_cfa_offset 16
ARM GAS  C:\Users\IEUser\AppData\Local\Temp\cctak5Pf.s 			page 40


 1233 0004 00AF     		add	r7, sp, #0
 1234              		.cfi_def_cfa_register 7
 1235 0006 7860     		str	r0, [r7, #4]
 1236 0008 0A1C     		mov	r2, r1
 1237 000a FB1C     		add	r3, r7, #3
 1238 000c 1A70     		strb	r2, [r3]
 975:.\Generated_Source\PSoC4/CapSense_CSHL.c **** 		CapSense_hysteresis[widget] = value;
 1239              		.loc 1 975 0
 1240 000e 044A     		ldr	r2, .L81
 1241 0010 7B68     		ldr	r3, [r7, #4]
 1242 0012 D318     		add	r3, r2, r3
 1243 0014 FA1C     		add	r2, r7, #3
 1244 0016 1278     		ldrb	r2, [r2]
 1245 0018 1A70     		strb	r2, [r3]
 976:.\Generated_Source\PSoC4/CapSense_CSHL.c **** 	}
 1246              		.loc 1 976 0
 1247 001a BD46     		mov	sp, r7
 1248 001c 02B0     		add	sp, sp, #8
 1249              		@ sp needed
 1250 001e 80BD     		pop	{r7, pc}
 1251              	.L82:
 1252              		.align	2
 1253              	.L81:
 1254 0020 00000000 		.word	CapSense_hysteresis
 1255              		.cfi_endproc
 1256              	.LFE51:
 1257              		.size	CapSense_SetFingerHysteresis, .-CapSense_SetFingerHysteresis
 1258              		.section	.text.CapSense_SetNegativeNoiseThreshold,"ax",%progbits
 1259              		.align	2
 1260              		.global	CapSense_SetNegativeNoiseThreshold
 1261              		.code	16
 1262              		.thumb_func
 1263              		.type	CapSense_SetNegativeNoiseThreshold, %function
 1264              	CapSense_SetNegativeNoiseThreshold:
 1265              	.LFB52:
 977:.\Generated_Source\PSoC4/CapSense_CSHL.c **** 
 978:.\Generated_Source\PSoC4/CapSense_CSHL.c **** 
 979:.\Generated_Source\PSoC4/CapSense_CSHL.c **** 	/*******************************************************************************
 980:.\Generated_Source\PSoC4/CapSense_CSHL.c **** 	* Function Name: CapSense_SetNegativeNoiseThreshold
 981:.\Generated_Source\PSoC4/CapSense_CSHL.c **** 	********************************************************************************
 982:.\Generated_Source\PSoC4/CapSense_CSHL.c **** 	*
 983:.\Generated_Source\PSoC4/CapSense_CSHL.c **** 	* Summary:
 984:.\Generated_Source\PSoC4/CapSense_CSHL.c **** 	*  This API sets the Negative Noise Threshold value of a widget
 985:.\Generated_Source\PSoC4/CapSense_CSHL.c **** 	*
 986:.\Generated_Source\PSoC4/CapSense_CSHL.c **** 	* Parameters: 
 987:.\Generated_Source\PSoC4/CapSense_CSHL.c **** 	*  value:  Negative Noise Threshold value for widgets.
 988:.\Generated_Source\PSoC4/CapSense_CSHL.c **** 	*  widget: widget number
 989:.\Generated_Source\PSoC4/CapSense_CSHL.c **** 	*
 990:.\Generated_Source\PSoC4/CapSense_CSHL.c **** 	* Return Value: 
 991:.\Generated_Source\PSoC4/CapSense_CSHL.c **** 	*  None
 992:.\Generated_Source\PSoC4/CapSense_CSHL.c **** 	*
 993:.\Generated_Source\PSoC4/CapSense_CSHL.c **** 	* Global Variables:
 994:.\Generated_Source\PSoC4/CapSense_CSHL.c **** 	*  CapSense_negativeNoiseThreshold  - This parameter specifies the negative 
 995:.\Generated_Source\PSoC4/CapSense_CSHL.c **** 	*   difference between the raw count and baseline levels for Baseline resetting to 
 996:.\Generated_Source\PSoC4/CapSense_CSHL.c **** 	*   the raw count level.
 997:.\Generated_Source\PSoC4/CapSense_CSHL.c **** 	* 
 998:.\Generated_Source\PSoC4/CapSense_CSHL.c **** 	* Side Effects:
ARM GAS  C:\Users\IEUser\AppData\Local\Temp\cctak5Pf.s 			page 41


 999:.\Generated_Source\PSoC4/CapSense_CSHL.c **** 	*  None
1000:.\Generated_Source\PSoC4/CapSense_CSHL.c **** 	*
1001:.\Generated_Source\PSoC4/CapSense_CSHL.c **** 	*******************************************************************************/
1002:.\Generated_Source\PSoC4/CapSense_CSHL.c **** 	void CapSense_SetNegativeNoiseThreshold(uint32 widget, uint8 value)
1003:.\Generated_Source\PSoC4/CapSense_CSHL.c **** 	{
 1266              		.loc 1 1003 0
 1267              		.cfi_startproc
 1268 0000 80B5     		push	{r7, lr}
 1269              		.cfi_def_cfa_offset 8
 1270              		.cfi_offset 7, -8
 1271              		.cfi_offset 14, -4
 1272 0002 82B0     		sub	sp, sp, #8
 1273              		.cfi_def_cfa_offset 16
 1274 0004 00AF     		add	r7, sp, #0
 1275              		.cfi_def_cfa_register 7
 1276 0006 7860     		str	r0, [r7, #4]
 1277 0008 0A1C     		mov	r2, r1
 1278 000a FB1C     		add	r3, r7, #3
 1279 000c 1A70     		strb	r2, [r3]
1004:.\Generated_Source\PSoC4/CapSense_CSHL.c **** 		CapSense_negativeNoiseThreshold[widget] = value;
 1280              		.loc 1 1004 0
 1281 000e 044A     		ldr	r2, .L84
 1282 0010 7B68     		ldr	r3, [r7, #4]
 1283 0012 D318     		add	r3, r2, r3
 1284 0014 FA1C     		add	r2, r7, #3
 1285 0016 1278     		ldrb	r2, [r2]
 1286 0018 1A70     		strb	r2, [r3]
1005:.\Generated_Source\PSoC4/CapSense_CSHL.c **** 	}
 1287              		.loc 1 1005 0
 1288 001a BD46     		mov	sp, r7
 1289 001c 02B0     		add	sp, sp, #8
 1290              		@ sp needed
 1291 001e 80BD     		pop	{r7, pc}
 1292              	.L85:
 1293              		.align	2
 1294              	.L84:
 1295 0020 00000000 		.word	CapSense_negativeNoiseThreshold
 1296              		.cfi_endproc
 1297              	.LFE52:
 1298              		.size	CapSense_SetNegativeNoiseThreshold, .-CapSense_SetNegativeNoiseThreshold
 1299              		.section	.text.CapSense_SetDebounce,"ax",%progbits
 1300              		.align	2
 1301              		.global	CapSense_SetDebounce
 1302              		.code	16
 1303              		.thumb_func
 1304              		.type	CapSense_SetDebounce, %function
 1305              	CapSense_SetDebounce:
 1306              	.LFB53:
1006:.\Generated_Source\PSoC4/CapSense_CSHL.c **** 
1007:.\Generated_Source\PSoC4/CapSense_CSHL.c **** 
1008:.\Generated_Source\PSoC4/CapSense_CSHL.c **** 	/*******************************************************************************
1009:.\Generated_Source\PSoC4/CapSense_CSHL.c **** 	* Function Name: CapSense_SetDebounce
1010:.\Generated_Source\PSoC4/CapSense_CSHL.c **** 	********************************************************************************
1011:.\Generated_Source\PSoC4/CapSense_CSHL.c **** 	*
1012:.\Generated_Source\PSoC4/CapSense_CSHL.c **** 	* Summary:
1013:.\Generated_Source\PSoC4/CapSense_CSHL.c **** 	*  This API sets the debounce value for a widget.
1014:.\Generated_Source\PSoC4/CapSense_CSHL.c **** 	*
ARM GAS  C:\Users\IEUser\AppData\Local\Temp\cctak5Pf.s 			page 42


1015:.\Generated_Source\PSoC4/CapSense_CSHL.c **** 	* Parameters: 
1016:.\Generated_Source\PSoC4/CapSense_CSHL.c **** 	*  value:  Debounce value for widget.
1017:.\Generated_Source\PSoC4/CapSense_CSHL.c **** 	*  widget: widget index.
1018:.\Generated_Source\PSoC4/CapSense_CSHL.c **** 	*
1019:.\Generated_Source\PSoC4/CapSense_CSHL.c **** 	* Return Value: 
1020:.\Generated_Source\PSoC4/CapSense_CSHL.c **** 	*  None
1021:.\Generated_Source\PSoC4/CapSense_CSHL.c **** 	*
1022:.\Generated_Source\PSoC4/CapSense_CSHL.c **** 	* Global Variables:
1023:.\Generated_Source\PSoC4/CapSense_CSHL.c **** 	*  CapSense_debounce[] - This array contains the debounce value for each widget.
1024:.\Generated_Source\PSoC4/CapSense_CSHL.c **** 	*  CapSense_widgetNumberSld - structure with dynamic sliders' parameters.
1025:.\Generated_Source\PSoC4/CapSense_CSHL.c **** 	*
1026:.\Generated_Source\PSoC4/CapSense_CSHL.c **** 	* Side Effects:
1027:.\Generated_Source\PSoC4/CapSense_CSHL.c **** 	*  None
1028:.\Generated_Source\PSoC4/CapSense_CSHL.c **** 	*
1029:.\Generated_Source\PSoC4/CapSense_CSHL.c **** 	*******************************************************************************/
1030:.\Generated_Source\PSoC4/CapSense_CSHL.c **** 	void CapSense_SetDebounce(uint32 widget, uint8 value)
1031:.\Generated_Source\PSoC4/CapSense_CSHL.c **** 	{
 1307              		.loc 1 1031 0
 1308              		.cfi_startproc
 1309 0000 80B5     		push	{r7, lr}
 1310              		.cfi_def_cfa_offset 8
 1311              		.cfi_offset 7, -8
 1312              		.cfi_offset 14, -4
 1313 0002 82B0     		sub	sp, sp, #8
 1314              		.cfi_def_cfa_offset 16
 1315 0004 00AF     		add	r7, sp, #0
 1316              		.cfi_def_cfa_register 7
 1317 0006 7860     		str	r0, [r7, #4]
 1318 0008 0A1C     		mov	r2, r1
 1319 000a FB1C     		add	r3, r7, #3
 1320 000c 1A70     		strb	r2, [r3]
1032:.\Generated_Source\PSoC4/CapSense_CSHL.c **** 		CapSense_debounce[widget] = value;
 1321              		.loc 1 1032 0
 1322 000e 044A     		ldr	r2, .L87
 1323 0010 7B68     		ldr	r3, [r7, #4]
 1324 0012 D318     		add	r3, r2, r3
 1325 0014 FA1C     		add	r2, r7, #3
 1326 0016 1278     		ldrb	r2, [r2]
 1327 0018 1A70     		strb	r2, [r3]
1033:.\Generated_Source\PSoC4/CapSense_CSHL.c **** 	}
 1328              		.loc 1 1033 0
 1329 001a BD46     		mov	sp, r7
 1330 001c 02B0     		add	sp, sp, #8
 1331              		@ sp needed
 1332 001e 80BD     		pop	{r7, pc}
 1333              	.L88:
 1334              		.align	2
 1335              	.L87:
 1336 0020 00000000 		.word	CapSense_debounce
 1337              		.cfi_endproc
 1338              	.LFE53:
 1339              		.size	CapSense_SetDebounce, .-CapSense_SetDebounce
 1340              		.section	.text.CapSense_SetLowBaselineReset,"ax",%progbits
 1341              		.align	2
 1342              		.global	CapSense_SetLowBaselineReset
 1343              		.code	16
 1344              		.thumb_func
ARM GAS  C:\Users\IEUser\AppData\Local\Temp\cctak5Pf.s 			page 43


 1345              		.type	CapSense_SetLowBaselineReset, %function
 1346              	CapSense_SetLowBaselineReset:
 1347              	.LFB54:
1034:.\Generated_Source\PSoC4/CapSense_CSHL.c **** 
1035:.\Generated_Source\PSoC4/CapSense_CSHL.c **** 
1036:.\Generated_Source\PSoC4/CapSense_CSHL.c **** 	/*******************************************************************************
1037:.\Generated_Source\PSoC4/CapSense_CSHL.c **** 	* Function Name: CapSense_SetLowBaselineReset
1038:.\Generated_Source\PSoC4/CapSense_CSHL.c **** 	********************************************************************************
1039:.\Generated_Source\PSoC4/CapSense_CSHL.c **** 	*
1040:.\Generated_Source\PSoC4/CapSense_CSHL.c **** 	* Summary:
1041:.\Generated_Source\PSoC4/CapSense_CSHL.c **** 	*  This API sets the low baseline reset threshold value for the sensor.
1042:.\Generated_Source\PSoC4/CapSense_CSHL.c **** 	*
1043:.\Generated_Source\PSoC4/CapSense_CSHL.c **** 	* Parameters: 
1044:.\Generated_Source\PSoC4/CapSense_CSHL.c **** 	*  value: low baseline reset threshold value.
1045:.\Generated_Source\PSoC4/CapSense_CSHL.c **** 	*  sensor: Sensor index.
1046:.\Generated_Source\PSoC4/CapSense_CSHL.c **** 	*
1047:.\Generated_Source\PSoC4/CapSense_CSHL.c **** 	* Return Value: 
1048:.\Generated_Source\PSoC4/CapSense_CSHL.c **** 	*  None
1049:.\Generated_Source\PSoC4/CapSense_CSHL.c **** 	*
1050:.\Generated_Source\PSoC4/CapSense_CSHL.c **** 	* Global Variables:
1051:.\Generated_Source\PSoC4/CapSense_CSHL.c **** 	*  CapSense_lowBaselineReset[] - This array contains the Baseline update 
1052:.\Generated_Source\PSoC4/CapSense_CSHL.c **** 	*  threshold value for each sensor.
1053:.\Generated_Source\PSoC4/CapSense_CSHL.c **** 	* 
1054:.\Generated_Source\PSoC4/CapSense_CSHL.c **** 	* Side Effects:
1055:.\Generated_Source\PSoC4/CapSense_CSHL.c **** 	*  None
1056:.\Generated_Source\PSoC4/CapSense_CSHL.c **** 	*
1057:.\Generated_Source\PSoC4/CapSense_CSHL.c **** 	*******************************************************************************/
1058:.\Generated_Source\PSoC4/CapSense_CSHL.c **** 	void CapSense_SetLowBaselineReset(uint32 sensor, uint8 value)
1059:.\Generated_Source\PSoC4/CapSense_CSHL.c **** 	{
 1348              		.loc 1 1059 0
 1349              		.cfi_startproc
 1350 0000 80B5     		push	{r7, lr}
 1351              		.cfi_def_cfa_offset 8
 1352              		.cfi_offset 7, -8
 1353              		.cfi_offset 14, -4
 1354 0002 82B0     		sub	sp, sp, #8
 1355              		.cfi_def_cfa_offset 16
 1356 0004 00AF     		add	r7, sp, #0
 1357              		.cfi_def_cfa_register 7
 1358 0006 7860     		str	r0, [r7, #4]
 1359 0008 0A1C     		mov	r2, r1
 1360 000a FB1C     		add	r3, r7, #3
 1361 000c 1A70     		strb	r2, [r3]
1060:.\Generated_Source\PSoC4/CapSense_CSHL.c **** 		CapSense_lowBaselineReset[sensor] = value;
 1362              		.loc 1 1060 0
 1363 000e 044A     		ldr	r2, .L90
 1364 0010 7B68     		ldr	r3, [r7, #4]
 1365 0012 D318     		add	r3, r2, r3
 1366 0014 FA1C     		add	r2, r7, #3
 1367 0016 1278     		ldrb	r2, [r2]
 1368 0018 1A70     		strb	r2, [r3]
1061:.\Generated_Source\PSoC4/CapSense_CSHL.c **** 	}
 1369              		.loc 1 1061 0
 1370 001a BD46     		mov	sp, r7
 1371 001c 02B0     		add	sp, sp, #8
 1372              		@ sp needed
 1373 001e 80BD     		pop	{r7, pc}
ARM GAS  C:\Users\IEUser\AppData\Local\Temp\cctak5Pf.s 			page 44


 1374              	.L91:
 1375              		.align	2
 1376              	.L90:
 1377 0020 00000000 		.word	CapSense_lowBaselineReset
 1378              		.cfi_endproc
 1379              	.LFE54:
 1380              		.size	CapSense_SetLowBaselineReset, .-CapSense_SetLowBaselineReset
 1381              		.section	.text.CapSense_CheckIsSensorActive,"ax",%progbits
 1382              		.align	2
 1383              		.global	CapSense_CheckIsSensorActive
 1384              		.code	16
 1385              		.thumb_func
 1386              		.type	CapSense_CheckIsSensorActive, %function
 1387              	CapSense_CheckIsSensorActive:
 1388              	.LFB55:
1062:.\Generated_Source\PSoC4/CapSense_CSHL.c **** #endif /* (CapSense_TUNING_METHOD != CapSense__TUNING_NONE) */
1063:.\Generated_Source\PSoC4/CapSense_CSHL.c **** 
1064:.\Generated_Source\PSoC4/CapSense_CSHL.c **** 
1065:.\Generated_Source\PSoC4/CapSense_CSHL.c **** /*******************************************************************************
1066:.\Generated_Source\PSoC4/CapSense_CSHL.c **** * Function Name: CapSense_CheckIsSensorActive
1067:.\Generated_Source\PSoC4/CapSense_CSHL.c **** ********************************************************************************
1068:.\Generated_Source\PSoC4/CapSense_CSHL.c **** *
1069:.\Generated_Source\PSoC4/CapSense_CSHL.c **** * Summary:
1070:.\Generated_Source\PSoC4/CapSense_CSHL.c **** *  Compares the CapSense_sensorSignal[sensor] array element to the finger
1071:.\Generated_Source\PSoC4/CapSense_CSHL.c **** *  threshold of the widget it belongs to. The hysteresis and debounce are taken into 
1072:.\Generated_Source\PSoC4/CapSense_CSHL.c **** *  account. The hysteresis is added or subtracted from the finger threshold 
1073:.\Generated_Source\PSoC4/CapSense_CSHL.c **** *  based on whether the sensor is currently active. 
1074:.\Generated_Source\PSoC4/CapSense_CSHL.c **** *  If the sensor is active, the threshold is lowered by the hysteresis amount.
1075:.\Generated_Source\PSoC4/CapSense_CSHL.c **** *  If the sensor is inactive, the threshold is raised by the hysteresis amount.
1076:.\Generated_Source\PSoC4/CapSense_CSHL.c **** *  The debounce counter is added to the sensor active transition.
1077:.\Generated_Source\PSoC4/CapSense_CSHL.c **** *  This function updates the CapSense_sensorOnMask[] array element.
1078:.\Generated_Source\PSoC4/CapSense_CSHL.c **** *
1079:.\Generated_Source\PSoC4/CapSense_CSHL.c **** * Parameters:
1080:.\Generated_Source\PSoC4/CapSense_CSHL.c **** *  sensor:  Sensor number.
1081:.\Generated_Source\PSoC4/CapSense_CSHL.c **** *
1082:.\Generated_Source\PSoC4/CapSense_CSHL.c **** * Return:
1083:.\Generated_Source\PSoC4/CapSense_CSHL.c **** *  Returns sensor state 1 if active, 0 if not active.
1084:.\Generated_Source\PSoC4/CapSense_CSHL.c **** *
1085:.\Generated_Source\PSoC4/CapSense_CSHL.c **** * Global Variables:
1086:.\Generated_Source\PSoC4/CapSense_CSHL.c **** *  CapSense_sensorSignal[] - used to store the difference between 
1087:.\Generated_Source\PSoC4/CapSense_CSHL.c **** *  the current value of raw data and a previous value of the baseline.
1088:.\Generated_Source\PSoC4/CapSense_CSHL.c **** *  CapSense_debounceCounter[]   - used to store the current debounce 
1089:.\Generated_Source\PSoC4/CapSense_CSHL.c **** *  counter of the sensor. the widget which have this parameter are buttons, matrix 
1090:.\Generated_Source\PSoC4/CapSense_CSHL.c **** *  buttons, proximity, and guard. All other widgets don't have the  debounce parameter
1091:.\Generated_Source\PSoC4/CapSense_CSHL.c **** *  and use the last element of this array with value 0 (it means no debounce).
1092:.\Generated_Source\PSoC4/CapSense_CSHL.c **** *  CapSense_sensorOnMask[] - used to store the sensors on/off state.
1093:.\Generated_Source\PSoC4/CapSense_CSHL.c **** *  CapSense_sensorOnMask[0] contains the masked bits for sensors 
1094:.\Generated_Source\PSoC4/CapSense_CSHL.c **** *   0 through 7 (sensor 0 is bit 0, sensor 1 is bit 1).
1095:.\Generated_Source\PSoC4/CapSense_CSHL.c **** *  CapSense_sensorEnableMask[1] contains the masked bits for 
1096:.\Generated_Source\PSoC4/CapSense_CSHL.c **** *  sensors 8 through 15 (if needed), and so on.
1097:.\Generated_Source\PSoC4/CapSense_CSHL.c **** *  0 - sensor is inactive.
1098:.\Generated_Source\PSoC4/CapSense_CSHL.c **** *  1 - sensor is active.
1099:.\Generated_Source\PSoC4/CapSense_CSHL.c **** * 
1100:.\Generated_Source\PSoC4/CapSense_CSHL.c **** * Side Effects:
1101:.\Generated_Source\PSoC4/CapSense_CSHL.c **** *  None
1102:.\Generated_Source\PSoC4/CapSense_CSHL.c **** *
1103:.\Generated_Source\PSoC4/CapSense_CSHL.c **** *******************************************************************************/
ARM GAS  C:\Users\IEUser\AppData\Local\Temp\cctak5Pf.s 			page 45


1104:.\Generated_Source\PSoC4/CapSense_CSHL.c **** uint32 CapSense_CheckIsSensorActive(uint32 sensor)
1105:.\Generated_Source\PSoC4/CapSense_CSHL.c **** {	
 1389              		.loc 1 1105 0
 1390              		.cfi_startproc
 1391 0000 80B5     		push	{r7, lr}
 1392              		.cfi_def_cfa_offset 8
 1393              		.cfi_offset 7, -8
 1394              		.cfi_offset 14, -4
 1395 0002 84B0     		sub	sp, sp, #16
 1396              		.cfi_def_cfa_offset 24
 1397 0004 00AF     		add	r7, sp, #0
 1398              		.cfi_def_cfa_register 7
 1399 0006 7860     		str	r0, [r7, #4]
1106:.\Generated_Source\PSoC4/CapSense_CSHL.c **** 	uint8 widget;
1107:.\Generated_Source\PSoC4/CapSense_CSHL.c **** 	uint8 debounce;
1108:.\Generated_Source\PSoC4/CapSense_CSHL.c **** 	uint8 debounceIndex;
1109:.\Generated_Source\PSoC4/CapSense_CSHL.c **** 
1110:.\Generated_Source\PSoC4/CapSense_CSHL.c **** 	uint8 fingerThreshold;
1111:.\Generated_Source\PSoC4/CapSense_CSHL.c **** 	uint8 hysteresis;
1112:.\Generated_Source\PSoC4/CapSense_CSHL.c **** 	static uint8 CapSense_debounceCounter[] = {
1113:.\Generated_Source\PSoC4/CapSense_CSHL.c ****     0u, 
1114:.\Generated_Source\PSoC4/CapSense_CSHL.c **** };
1115:.\Generated_Source\PSoC4/CapSense_CSHL.c **** 
1116:.\Generated_Source\PSoC4/CapSense_CSHL.c **** 
1117:.\Generated_Source\PSoC4/CapSense_CSHL.c **** 	
1118:.\Generated_Source\PSoC4/CapSense_CSHL.c ****     /* Prepare to find debounce counter index */
1119:.\Generated_Source\PSoC4/CapSense_CSHL.c ****     widget = CapSense_widgetNumber[sensor];
 1400              		.loc 1 1119 0
 1401 0008 3B1C     		mov	r3, r7
 1402 000a 0F33     		add	r3, r3, #15
 1403 000c 4549     		ldr	r1, .L101
 1404 000e 7A68     		ldr	r2, [r7, #4]
 1405 0010 8A18     		add	r2, r1, r2
 1406 0012 1278     		ldrb	r2, [r2]
 1407 0014 1A70     		strb	r2, [r3]
1120:.\Generated_Source\PSoC4/CapSense_CSHL.c **** 	
1121:.\Generated_Source\PSoC4/CapSense_CSHL.c ****     fingerThreshold = CapSense_fingerThreshold[widget];
 1408              		.loc 1 1121 0
 1409 0016 3B1C     		mov	r3, r7
 1410 0018 0F33     		add	r3, r3, #15
 1411 001a 1A78     		ldrb	r2, [r3]
 1412 001c 3B1C     		mov	r3, r7
 1413 001e 0E33     		add	r3, r3, #14
 1414 0020 4149     		ldr	r1, .L101+4
 1415 0022 8A5C     		ldrb	r2, [r1, r2]
 1416 0024 1A70     		strb	r2, [r3]
1122:.\Generated_Source\PSoC4/CapSense_CSHL.c **** 	hysteresis = CapSense_hysteresis[widget];
 1417              		.loc 1 1122 0
 1418 0026 3B1C     		mov	r3, r7
 1419 0028 0F33     		add	r3, r3, #15
 1420 002a 1A78     		ldrb	r2, [r3]
 1421 002c 3B1C     		mov	r3, r7
 1422 002e 0D33     		add	r3, r3, #13
 1423 0030 3E49     		ldr	r1, .L101+8
 1424 0032 8A5C     		ldrb	r2, [r1, r2]
 1425 0034 1A70     		strb	r2, [r3]
1123:.\Generated_Source\PSoC4/CapSense_CSHL.c **** 	debounce = CapSense_debounce[widget];	
ARM GAS  C:\Users\IEUser\AppData\Local\Temp\cctak5Pf.s 			page 46


 1426              		.loc 1 1123 0
 1427 0036 3B1C     		mov	r3, r7
 1428 0038 0F33     		add	r3, r3, #15
 1429 003a 1A78     		ldrb	r2, [r3]
 1430 003c 3B1C     		mov	r3, r7
 1431 003e 0C33     		add	r3, r3, #12
 1432 0040 3B49     		ldr	r1, .L101+12
 1433 0042 8A5C     		ldrb	r2, [r1, r2]
 1434 0044 1A70     		strb	r2, [r3]
1124:.\Generated_Source\PSoC4/CapSense_CSHL.c **** 	
1125:.\Generated_Source\PSoC4/CapSense_CSHL.c **** 	    debounceIndex = CapSense_UNUSED_DEBOUNCE_COUNTER_INDEX;
 1435              		.loc 1 1125 0
 1436 0046 3B1C     		mov	r3, r7
 1437 0048 0B33     		add	r3, r3, #11
 1438 004a 0022     		mov	r2, #0
 1439 004c 1A70     		strb	r2, [r3]
1126:.\Generated_Source\PSoC4/CapSense_CSHL.c ****     CapSense_debounceCounter[debounceIndex] = 1u;
 1440              		.loc 1 1126 0
 1441 004e 3B1C     		mov	r3, r7
 1442 0050 0B33     		add	r3, r3, #11
 1443 0052 1B78     		ldrb	r3, [r3]
 1444 0054 374A     		ldr	r2, .L101+16
 1445 0056 0121     		mov	r1, #1
 1446 0058 D154     		strb	r1, [r2, r3]
1127:.\Generated_Source\PSoC4/CapSense_CSHL.c **** 
1128:.\Generated_Source\PSoC4/CapSense_CSHL.c **** 	
1129:.\Generated_Source\PSoC4/CapSense_CSHL.c ****     /* Was on */
1130:.\Generated_Source\PSoC4/CapSense_CSHL.c ****     if (0u != CapSense_GetBitValue(CapSense_sensorOnMask, sensor))
 1447              		.loc 1 1130 0
 1448 005a 374A     		ldr	r2, .L101+20
 1449 005c 7B68     		ldr	r3, [r7, #4]
 1450 005e 101C     		mov	r0, r2
 1451 0060 191C     		mov	r1, r3
 1452 0062 FFF7FEFF 		bl	CapSense_GetBitValue
 1453 0066 031C     		mov	r3, r0
 1454 0068 002B     		cmp	r3, #0
 1455 006a 1DD0     		beq	.L93
1131:.\Generated_Source\PSoC4/CapSense_CSHL.c ****     {
1132:.\Generated_Source\PSoC4/CapSense_CSHL.c ****         /* Hysteresis minus */
1133:.\Generated_Source\PSoC4/CapSense_CSHL.c ****         if (CapSense_sensorSignal[sensor] < (fingerThreshold - hysteresis))
 1456              		.loc 1 1133 0
 1457 006c 334A     		ldr	r2, .L101+24
 1458 006e 7B68     		ldr	r3, [r7, #4]
 1459 0070 D318     		add	r3, r2, r3
 1460 0072 1B78     		ldrb	r3, [r3]
 1461 0074 1A1C     		mov	r2, r3
 1462 0076 3B1C     		mov	r3, r7
 1463 0078 0E33     		add	r3, r3, #14
 1464 007a 1978     		ldrb	r1, [r3]
 1465 007c 3B1C     		mov	r3, r7
 1466 007e 0D33     		add	r3, r3, #13
 1467 0080 1B78     		ldrb	r3, [r3]
 1468 0082 CB1A     		sub	r3, r1, r3
 1469 0084 9A42     		cmp	r2, r3
 1470 0086 3DDA     		bge	.L95
1134:.\Generated_Source\PSoC4/CapSense_CSHL.c ****         {
1135:.\Generated_Source\PSoC4/CapSense_CSHL.c **** 	   		CapSense_SetBitValue(CapSense_sensorOnMask, sensor, 0u);
ARM GAS  C:\Users\IEUser\AppData\Local\Temp\cctak5Pf.s 			page 47


 1471              		.loc 1 1135 0
 1472 0088 2B4A     		ldr	r2, .L101+20
 1473 008a 7B68     		ldr	r3, [r7, #4]
 1474 008c 101C     		mov	r0, r2
 1475 008e 191C     		mov	r1, r3
 1476 0090 0022     		mov	r2, #0
 1477 0092 FFF7FEFF 		bl	CapSense_SetBitValue
1136:.\Generated_Source\PSoC4/CapSense_CSHL.c **** 			/* Sensor inactive - reset Debounce counter */
1137:.\Generated_Source\PSoC4/CapSense_CSHL.c ****             CapSense_debounceCounter[debounceIndex] = debounce;
 1478              		.loc 1 1137 0
 1479 0096 3B1C     		mov	r3, r7
 1480 0098 0B33     		add	r3, r3, #11
 1481 009a 1B78     		ldrb	r3, [r3]
 1482 009c 254A     		ldr	r2, .L101+16
 1483 009e 391C     		mov	r1, r7
 1484 00a0 0C31     		add	r1, r1, #12
 1485 00a2 0978     		ldrb	r1, [r1]
 1486 00a4 D154     		strb	r1, [r2, r3]
 1487 00a6 2DE0     		b	.L95
 1488              	.L93:
1138:.\Generated_Source\PSoC4/CapSense_CSHL.c ****         }
1139:.\Generated_Source\PSoC4/CapSense_CSHL.c ****     }
1140:.\Generated_Source\PSoC4/CapSense_CSHL.c ****     else    /* Was off */
1141:.\Generated_Source\PSoC4/CapSense_CSHL.c ****     {
1142:.\Generated_Source\PSoC4/CapSense_CSHL.c ****         /* Hysteresis plus */
1143:.\Generated_Source\PSoC4/CapSense_CSHL.c ****         if (CapSense_sensorSignal[sensor] >= (fingerThreshold + hysteresis))
 1489              		.loc 1 1143 0
 1490 00a8 244A     		ldr	r2, .L101+24
 1491 00aa 7B68     		ldr	r3, [r7, #4]
 1492 00ac D318     		add	r3, r2, r3
 1493 00ae 1B78     		ldrb	r3, [r3]
 1494 00b0 1A1C     		mov	r2, r3
 1495 00b2 3B1C     		mov	r3, r7
 1496 00b4 0E33     		add	r3, r3, #14
 1497 00b6 1978     		ldrb	r1, [r3]
 1498 00b8 3B1C     		mov	r3, r7
 1499 00ba 0D33     		add	r3, r3, #13
 1500 00bc 1B78     		ldrb	r3, [r3]
 1501 00be CB18     		add	r3, r1, r3
 1502 00c0 9A42     		cmp	r2, r3
 1503 00c2 17DB     		blt	.L96
1144:.\Generated_Source\PSoC4/CapSense_CSHL.c ****         {
1145:.\Generated_Source\PSoC4/CapSense_CSHL.c **** 			CapSense_debounceCounter[debounceIndex]--;
 1504              		.loc 1 1145 0
 1505 00c4 3B1C     		mov	r3, r7
 1506 00c6 0B33     		add	r3, r3, #11
 1507 00c8 1B78     		ldrb	r3, [r3]
 1508 00ca 1A4A     		ldr	r2, .L101+16
 1509 00cc D25C     		ldrb	r2, [r2, r3]
 1510 00ce 013A     		sub	r2, r2, #1
 1511 00d0 D1B2     		uxtb	r1, r2
 1512 00d2 184A     		ldr	r2, .L101+16
 1513 00d4 D154     		strb	r1, [r2, r3]
1146:.\Generated_Source\PSoC4/CapSense_CSHL.c ****             /* Sensor active, decrement debounce counter */
1147:.\Generated_Source\PSoC4/CapSense_CSHL.c ****             if(CapSense_debounceCounter[debounceIndex] == 0u)
 1514              		.loc 1 1147 0
 1515 00d6 3B1C     		mov	r3, r7
ARM GAS  C:\Users\IEUser\AppData\Local\Temp\cctak5Pf.s 			page 48


 1516 00d8 0B33     		add	r3, r3, #11
 1517 00da 1B78     		ldrb	r3, [r3]
 1518 00dc 154A     		ldr	r2, .L101+16
 1519 00de D35C     		ldrb	r3, [r2, r3]
 1520 00e0 002B     		cmp	r3, #0
 1521 00e2 0FD1     		bne	.L95
1148:.\Generated_Source\PSoC4/CapSense_CSHL.c ****             {
1149:.\Generated_Source\PSoC4/CapSense_CSHL.c ****                 CapSense_SetBitValue(CapSense_sensorOnMask, sensor, 1u); 
 1522              		.loc 1 1149 0
 1523 00e4 144A     		ldr	r2, .L101+20
 1524 00e6 7B68     		ldr	r3, [r7, #4]
 1525 00e8 101C     		mov	r0, r2
 1526 00ea 191C     		mov	r1, r3
 1527 00ec 0122     		mov	r2, #1
 1528 00ee FFF7FEFF 		bl	CapSense_SetBitValue
 1529 00f2 07E0     		b	.L95
 1530              	.L96:
1150:.\Generated_Source\PSoC4/CapSense_CSHL.c ****             }
1151:.\Generated_Source\PSoC4/CapSense_CSHL.c ****         }
1152:.\Generated_Source\PSoC4/CapSense_CSHL.c ****         else
1153:.\Generated_Source\PSoC4/CapSense_CSHL.c ****         {
1154:.\Generated_Source\PSoC4/CapSense_CSHL.c ****             /* Sensor inactive - reset Debounce counter */
1155:.\Generated_Source\PSoC4/CapSense_CSHL.c ****             CapSense_debounceCounter[debounceIndex] = debounce;
 1531              		.loc 1 1155 0
 1532 00f4 3B1C     		mov	r3, r7
 1533 00f6 0B33     		add	r3, r3, #11
 1534 00f8 1B78     		ldrb	r3, [r3]
 1535 00fa 0E4A     		ldr	r2, .L101+16
 1536 00fc 391C     		mov	r1, r7
 1537 00fe 0C31     		add	r1, r1, #12
 1538 0100 0978     		ldrb	r1, [r1]
 1539 0102 D154     		strb	r1, [r2, r3]
 1540              	.L95:
1156:.\Generated_Source\PSoC4/CapSense_CSHL.c ****         }
1157:.\Generated_Source\PSoC4/CapSense_CSHL.c ****     }
1158:.\Generated_Source\PSoC4/CapSense_CSHL.c ****     
1159:.\Generated_Source\PSoC4/CapSense_CSHL.c ****     return ((uint32)((0u != CapSense_GetBitValue(CapSense_sensorOnMask, sensor)) ? 1u : 0u));
 1541              		.loc 1 1159 0
 1542 0104 0C4A     		ldr	r2, .L101+20
 1543 0106 7B68     		ldr	r3, [r7, #4]
 1544 0108 101C     		mov	r0, r2
 1545 010a 191C     		mov	r1, r3
 1546 010c FFF7FEFF 		bl	CapSense_GetBitValue
 1547 0110 031C     		mov	r3, r0
 1548 0112 002B     		cmp	r3, #0
 1549 0114 01D0     		beq	.L98
 1550              		.loc 1 1159 0 is_stmt 0 discriminator 1
 1551 0116 0123     		mov	r3, #1
 1552 0118 00E0     		b	.L99
 1553              	.L98:
 1554              		.loc 1 1159 0 discriminator 2
 1555 011a 0023     		mov	r3, #0
 1556              	.L99:
1160:.\Generated_Source\PSoC4/CapSense_CSHL.c **** }
 1557              		.loc 1 1160 0 is_stmt 1 discriminator 3
 1558 011c 181C     		mov	r0, r3
 1559 011e BD46     		mov	sp, r7
ARM GAS  C:\Users\IEUser\AppData\Local\Temp\cctak5Pf.s 			page 49


 1560 0120 04B0     		add	sp, sp, #16
 1561              		@ sp needed
 1562 0122 80BD     		pop	{r7, pc}
 1563              	.L102:
 1564              		.align	2
 1565              	.L101:
 1566 0124 00000000 		.word	CapSense_widgetNumber
 1567 0128 00000000 		.word	CapSense_fingerThreshold
 1568 012c 00000000 		.word	CapSense_hysteresis
 1569 0130 00000000 		.word	CapSense_debounce
 1570 0134 20000000 		.word	CapSense_debounceCounter.5354
 1571 0138 00000000 		.word	CapSense_sensorOnMask
 1572 013c 00000000 		.word	CapSense_sensorSignal
 1573              		.cfi_endproc
 1574              	.LFE55:
 1575              		.size	CapSense_CheckIsSensorActive, .-CapSense_CheckIsSensorActive
 1576              		.section	.text.CapSense_CheckIsWidgetActive,"ax",%progbits
 1577              		.align	2
 1578              		.global	CapSense_CheckIsWidgetActive
 1579              		.code	16
 1580              		.thumb_func
 1581              		.type	CapSense_CheckIsWidgetActive, %function
 1582              	CapSense_CheckIsWidgetActive:
 1583              	.LFB56:
1161:.\Generated_Source\PSoC4/CapSense_CSHL.c **** 
1162:.\Generated_Source\PSoC4/CapSense_CSHL.c **** 
1163:.\Generated_Source\PSoC4/CapSense_CSHL.c **** /*******************************************************************************
1164:.\Generated_Source\PSoC4/CapSense_CSHL.c **** * Function Name: CapSense_CheckIsWidgetActive
1165:.\Generated_Source\PSoC4/CapSense_CSHL.c **** ********************************************************************************
1166:.\Generated_Source\PSoC4/CapSense_CSHL.c **** *
1167:.\Generated_Source\PSoC4/CapSense_CSHL.c **** * Summary:
1168:.\Generated_Source\PSoC4/CapSense_CSHL.c **** *  Compares the CapSense_sensorSignal[] array element to the finger threshold of 
1169:.\Generated_Source\PSoC4/CapSense_CSHL.c **** * the widget it belongs to. The hysteresis and debounce are taken into account. 
1170:.\Generated_Source\PSoC4/CapSense_CSHL.c **** * The hysteresis is added or subtracted from the finger threshold based on whether
1171:.\Generated_Source\PSoC4/CapSense_CSHL.c **** *  the sensor is currently active. If the sensor is active, the threshold is 
1172:.\Generated_Source\PSoC4/CapSense_CSHL.c **** *  lowered by the hysteresis amount. If the sensor is inactive, the threshold 
1173:.\Generated_Source\PSoC4/CapSense_CSHL.c **** *  is raised by the hysteresis amount. 
1174:.\Generated_Source\PSoC4/CapSense_CSHL.c **** * The debounce counter added to the sensor active transition. 
1175:.\Generated_Source\PSoC4/CapSense_CSHL.c **** * This function updates CapSense_sensorOnMask[] array element
1176:.\Generated_Source\PSoC4/CapSense_CSHL.c **** *
1177:.\Generated_Source\PSoC4/CapSense_CSHL.c **** * Parameters:
1178:.\Generated_Source\PSoC4/CapSense_CSHL.c **** *  widget:  widget number.
1179:.\Generated_Source\PSoC4/CapSense_CSHL.c **** *
1180:.\Generated_Source\PSoC4/CapSense_CSHL.c **** * Return:
1181:.\Generated_Source\PSoC4/CapSense_CSHL.c **** *  Returns widget sensor state 1 if one or more sensors within widget is/are 
1182:.\Generated_Source\PSoC4/CapSense_CSHL.c **** *  active, 0 if all sensors within widget are inactive.
1183:.\Generated_Source\PSoC4/CapSense_CSHL.c **** *
1184:.\Generated_Source\PSoC4/CapSense_CSHL.c **** * Global Variables:
1185:.\Generated_Source\PSoC4/CapSense_CSHL.c **** *  rawDataIndex[]: Contains the  1st sensor position in the widget
1186:.\Generated_Source\PSoC4/CapSense_CSHL.c **** * 
1187:.\Generated_Source\PSoC4/CapSense_CSHL.c **** * Side Effects:
1188:.\Generated_Source\PSoC4/CapSense_CSHL.c **** *  None
1189:.\Generated_Source\PSoC4/CapSense_CSHL.c **** *
1190:.\Generated_Source\PSoC4/CapSense_CSHL.c **** *******************************************************************************/
1191:.\Generated_Source\PSoC4/CapSense_CSHL.c **** uint32 CapSense_CheckIsWidgetActive(uint32 widget)
1192:.\Generated_Source\PSoC4/CapSense_CSHL.c **** {
 1584              		.loc 1 1192 0
ARM GAS  C:\Users\IEUser\AppData\Local\Temp\cctak5Pf.s 			page 50


 1585              		.cfi_startproc
 1586 0000 80B5     		push	{r7, lr}
 1587              		.cfi_def_cfa_offset 8
 1588              		.cfi_offset 7, -8
 1589              		.cfi_offset 14, -4
 1590 0002 86B0     		sub	sp, sp, #24
 1591              		.cfi_def_cfa_offset 32
 1592 0004 00AF     		add	r7, sp, #0
 1593              		.cfi_def_cfa_register 7
 1594 0006 7860     		str	r0, [r7, #4]
1193:.\Generated_Source\PSoC4/CapSense_CSHL.c ****     uint32 rawIndex = (uint32)CapSense_rawDataIndex[widget];
 1595              		.loc 1 1193 0
 1596 0008 0023     		mov	r3, #0
 1597 000a 7B61     		str	r3, [r7, #20]
1194:.\Generated_Source\PSoC4/CapSense_CSHL.c ****     uint32 numOfSensors = (uint32)CapSense_numberOfSensors[widget] + rawIndex;
 1598              		.loc 1 1194 0
 1599 000c 0523     		mov	r3, #5
 1600 000e 1A1C     		mov	r2, r3
 1601 0010 7B69     		ldr	r3, [r7, #20]
 1602 0012 D318     		add	r3, r2, r3
 1603 0014 FB60     		str	r3, [r7, #12]
1195:.\Generated_Source\PSoC4/CapSense_CSHL.c ****     uint32 state = 0u;
 1604              		.loc 1 1195 0
 1605 0016 0023     		mov	r3, #0
 1606 0018 3B61     		str	r3, [r7, #16]
 1607              	.L105:
1196:.\Generated_Source\PSoC4/CapSense_CSHL.c **** 
1197:.\Generated_Source\PSoC4/CapSense_CSHL.c ****     /* Check all sensors of widget */
1198:.\Generated_Source\PSoC4/CapSense_CSHL.c ****     do
1199:.\Generated_Source\PSoC4/CapSense_CSHL.c ****     {
1200:.\Generated_Source\PSoC4/CapSense_CSHL.c ****         if(CapSense_CheckIsSensorActive((uint32)rawIndex) != 0u)
 1608              		.loc 1 1200 0
 1609 001a 7B69     		ldr	r3, [r7, #20]
 1610 001c 181C     		mov	r0, r3
 1611 001e FFF7FEFF 		bl	CapSense_CheckIsSensorActive
 1612 0022 031C     		mov	r3, r0
 1613 0024 002B     		cmp	r3, #0
 1614 0026 01D0     		beq	.L104
1201:.\Generated_Source\PSoC4/CapSense_CSHL.c ****         {
1202:.\Generated_Source\PSoC4/CapSense_CSHL.c ****             state = CapSense_SENSOR_IS_ACTIVE;
 1615              		.loc 1 1202 0
 1616 0028 0123     		mov	r3, #1
 1617 002a 3B61     		str	r3, [r7, #16]
 1618              	.L104:
1203:.\Generated_Source\PSoC4/CapSense_CSHL.c ****         }
1204:.\Generated_Source\PSoC4/CapSense_CSHL.c ****         rawIndex++;
 1619              		.loc 1 1204 0
 1620 002c 7B69     		ldr	r3, [r7, #20]
 1621 002e 0133     		add	r3, r3, #1
 1622 0030 7B61     		str	r3, [r7, #20]
1205:.\Generated_Source\PSoC4/CapSense_CSHL.c ****     }
1206:.\Generated_Source\PSoC4/CapSense_CSHL.c ****     while(rawIndex < numOfSensors);
 1623              		.loc 1 1206 0
 1624 0032 7A69     		ldr	r2, [r7, #20]
 1625 0034 FB68     		ldr	r3, [r7, #12]
 1626 0036 9A42     		cmp	r2, r3
 1627 0038 EFD3     		bcc	.L105
ARM GAS  C:\Users\IEUser\AppData\Local\Temp\cctak5Pf.s 			page 51


1207:.\Generated_Source\PSoC4/CapSense_CSHL.c ****     
1208:.\Generated_Source\PSoC4/CapSense_CSHL.c **** 
1209:.\Generated_Source\PSoC4/CapSense_CSHL.c ****     
1210:.\Generated_Source\PSoC4/CapSense_CSHL.c ****     return state;
 1628              		.loc 1 1210 0
 1629 003a 3B69     		ldr	r3, [r7, #16]
1211:.\Generated_Source\PSoC4/CapSense_CSHL.c **** }
 1630              		.loc 1 1211 0
 1631 003c 181C     		mov	r0, r3
 1632 003e BD46     		mov	sp, r7
 1633 0040 06B0     		add	sp, sp, #24
 1634              		@ sp needed
 1635 0042 80BD     		pop	{r7, pc}
 1636              		.cfi_endproc
 1637              	.LFE56:
 1638              		.size	CapSense_CheckIsWidgetActive, .-CapSense_CheckIsWidgetActive
 1639              		.section	.text.CapSense_CheckIsAnyWidgetActive,"ax",%progbits
 1640              		.align	2
 1641              		.global	CapSense_CheckIsAnyWidgetActive
 1642              		.code	16
 1643              		.thumb_func
 1644              		.type	CapSense_CheckIsAnyWidgetActive, %function
 1645              	CapSense_CheckIsAnyWidgetActive:
 1646              	.LFB57:
1212:.\Generated_Source\PSoC4/CapSense_CSHL.c **** 
1213:.\Generated_Source\PSoC4/CapSense_CSHL.c **** 
1214:.\Generated_Source\PSoC4/CapSense_CSHL.c **** /*******************************************************************************
1215:.\Generated_Source\PSoC4/CapSense_CSHL.c **** * Function Name: CapSense_CheckIsAnyWidgetActive
1216:.\Generated_Source\PSoC4/CapSense_CSHL.c **** ********************************************************************************
1217:.\Generated_Source\PSoC4/CapSense_CSHL.c **** *
1218:.\Generated_Source\PSoC4/CapSense_CSHL.c **** * Summary:
1219:.\Generated_Source\PSoC4/CapSense_CSHL.c **** *  Compares all the sensors of the CapSense_Signal[] array to their finger 
1220:.\Generated_Source\PSoC4/CapSense_CSHL.c **** *  threshold. Calls CapSense_CheckIsWidgetActive() for each widget so 
1221:.\Generated_Source\PSoC4/CapSense_CSHL.c **** *  the CapSense_sensorOnMask[] array is up to date after calling this 
1222:.\Generated_Source\PSoC4/CapSense_CSHL.c **** *  function.
1223:.\Generated_Source\PSoC4/CapSense_CSHL.c **** *
1224:.\Generated_Source\PSoC4/CapSense_CSHL.c **** * Parameters:
1225:.\Generated_Source\PSoC4/CapSense_CSHL.c **** *  widget:  widget number.
1226:.\Generated_Source\PSoC4/CapSense_CSHL.c **** *
1227:.\Generated_Source\PSoC4/CapSense_CSHL.c **** * Return:
1228:.\Generated_Source\PSoC4/CapSense_CSHL.c **** *  Returns 1 if any widget is active, 0 none of widgets are active.
1229:.\Generated_Source\PSoC4/CapSense_CSHL.c **** *
1230:.\Generated_Source\PSoC4/CapSense_CSHL.c **** * Global Variables:
1231:.\Generated_Source\PSoC4/CapSense_CSHL.c **** *  None
1232:.\Generated_Source\PSoC4/CapSense_CSHL.c **** * 
1233:.\Generated_Source\PSoC4/CapSense_CSHL.c **** * Side Effects:
1234:.\Generated_Source\PSoC4/CapSense_CSHL.c **** *  None
1235:.\Generated_Source\PSoC4/CapSense_CSHL.c **** *
1236:.\Generated_Source\PSoC4/CapSense_CSHL.c **** *******************************************************************************/
1237:.\Generated_Source\PSoC4/CapSense_CSHL.c **** uint32 CapSense_CheckIsAnyWidgetActive(void)
1238:.\Generated_Source\PSoC4/CapSense_CSHL.c **** {
 1647              		.loc 1 1238 0
 1648              		.cfi_startproc
 1649 0000 80B5     		push	{r7, lr}
 1650              		.cfi_def_cfa_offset 8
 1651              		.cfi_offset 7, -8
 1652              		.cfi_offset 14, -4
ARM GAS  C:\Users\IEUser\AppData\Local\Temp\cctak5Pf.s 			page 52


 1653 0002 82B0     		sub	sp, sp, #8
 1654              		.cfi_def_cfa_offset 16
 1655 0004 00AF     		add	r7, sp, #0
 1656              		.cfi_def_cfa_register 7
1239:.\Generated_Source\PSoC4/CapSense_CSHL.c **** 
1240:.\Generated_Source\PSoC4/CapSense_CSHL.c **** 	    uint32 i;
1241:.\Generated_Source\PSoC4/CapSense_CSHL.c ****     uint32 state = 0u;
 1657              		.loc 1 1241 0
 1658 0006 0023     		mov	r3, #0
 1659 0008 3B60     		str	r3, [r7]
1242:.\Generated_Source\PSoC4/CapSense_CSHL.c ****     
1243:.\Generated_Source\PSoC4/CapSense_CSHL.c ****     for(i = 0u; i < CapSense_TOTAL_WIDGET_COUNT; i++)
 1660              		.loc 1 1243 0
 1661 000a 0023     		mov	r3, #0
 1662 000c 7B60     		str	r3, [r7, #4]
 1663 000e 0BE0     		b	.L108
 1664              	.L110:
1244:.\Generated_Source\PSoC4/CapSense_CSHL.c ****     {
1245:.\Generated_Source\PSoC4/CapSense_CSHL.c ****         if (CapSense_CheckIsWidgetActive(i) != 0u)
 1665              		.loc 1 1245 0
 1666 0010 7B68     		ldr	r3, [r7, #4]
 1667 0012 181C     		mov	r0, r3
 1668 0014 FFF7FEFF 		bl	CapSense_CheckIsWidgetActive
 1669 0018 031C     		mov	r3, r0
 1670 001a 002B     		cmp	r3, #0
 1671 001c 01D0     		beq	.L109
1246:.\Generated_Source\PSoC4/CapSense_CSHL.c ****         {
1247:.\Generated_Source\PSoC4/CapSense_CSHL.c ****             state = CapSense_WIDGET_IS_ACTIVE;
 1672              		.loc 1 1247 0
 1673 001e 0123     		mov	r3, #1
 1674 0020 3B60     		str	r3, [r7]
 1675              	.L109:
1243:.\Generated_Source\PSoC4/CapSense_CSHL.c ****     for(i = 0u; i < CapSense_TOTAL_WIDGET_COUNT; i++)
 1676              		.loc 1 1243 0
 1677 0022 7B68     		ldr	r3, [r7, #4]
 1678 0024 0133     		add	r3, r3, #1
 1679 0026 7B60     		str	r3, [r7, #4]
 1680              	.L108:
1243:.\Generated_Source\PSoC4/CapSense_CSHL.c ****     for(i = 0u; i < CapSense_TOTAL_WIDGET_COUNT; i++)
 1681              		.loc 1 1243 0 is_stmt 0 discriminator 1
 1682 0028 7B68     		ldr	r3, [r7, #4]
 1683 002a 002B     		cmp	r3, #0
 1684 002c F0D0     		beq	.L110
1248:.\Generated_Source\PSoC4/CapSense_CSHL.c ****         }
1249:.\Generated_Source\PSoC4/CapSense_CSHL.c ****     }
1250:.\Generated_Source\PSoC4/CapSense_CSHL.c ****     
1251:.\Generated_Source\PSoC4/CapSense_CSHL.c **** 
1252:.\Generated_Source\PSoC4/CapSense_CSHL.c **** 
1253:.\Generated_Source\PSoC4/CapSense_CSHL.c ****     return state;
 1685              		.loc 1 1253 0 is_stmt 1
 1686 002e 3B68     		ldr	r3, [r7]
1254:.\Generated_Source\PSoC4/CapSense_CSHL.c **** }
 1687              		.loc 1 1254 0
 1688 0030 181C     		mov	r0, r3
 1689 0032 BD46     		mov	sp, r7
 1690 0034 02B0     		add	sp, sp, #8
 1691              		@ sp needed
ARM GAS  C:\Users\IEUser\AppData\Local\Temp\cctak5Pf.s 			page 53


 1692 0036 80BD     		pop	{r7, pc}
 1693              		.cfi_endproc
 1694              	.LFE57:
 1695              		.size	CapSense_CheckIsAnyWidgetActive, .-CapSense_CheckIsAnyWidgetActive
 1696              		.section	.text.CapSense_EnableWidget,"ax",%progbits
 1697              		.align	2
 1698              		.global	CapSense_EnableWidget
 1699              		.code	16
 1700              		.thumb_func
 1701              		.type	CapSense_EnableWidget, %function
 1702              	CapSense_EnableWidget:
 1703              	.LFB58:
1255:.\Generated_Source\PSoC4/CapSense_CSHL.c **** 
1256:.\Generated_Source\PSoC4/CapSense_CSHL.c **** 
1257:.\Generated_Source\PSoC4/CapSense_CSHL.c **** /*******************************************************************************
1258:.\Generated_Source\PSoC4/CapSense_CSHL.c **** * Function Name: CapSense_EnableWidget
1259:.\Generated_Source\PSoC4/CapSense_CSHL.c **** ********************************************************************************
1260:.\Generated_Source\PSoC4/CapSense_CSHL.c **** *
1261:.\Generated_Source\PSoC4/CapSense_CSHL.c **** * Summary:
1262:.\Generated_Source\PSoC4/CapSense_CSHL.c **** *  Enables all the widget elements (sensors) to the scanning process.
1263:.\Generated_Source\PSoC4/CapSense_CSHL.c **** *
1264:.\Generated_Source\PSoC4/CapSense_CSHL.c **** * Parameters:
1265:.\Generated_Source\PSoC4/CapSense_CSHL.c **** *  widget:  widget number.
1266:.\Generated_Source\PSoC4/CapSense_CSHL.c **** *
1267:.\Generated_Source\PSoC4/CapSense_CSHL.c **** * Return:
1268:.\Generated_Source\PSoC4/CapSense_CSHL.c **** *  None
1269:.\Generated_Source\PSoC4/CapSense_CSHL.c **** *
1270:.\Generated_Source\PSoC4/CapSense_CSHL.c **** * Global Variables:
1271:.\Generated_Source\PSoC4/CapSense_CSHL.c **** *  CapSense_sensorEnableMask[] - used to store the sensor scanning 
1272:.\Generated_Source\PSoC4/CapSense_CSHL.c **** *  state.
1273:.\Generated_Source\PSoC4/CapSense_CSHL.c **** *  CapSense_sensorEnableMask[0] contains the masked bits for sensors 
1274:.\Generated_Source\PSoC4/CapSense_CSHL.c **** *  0 through 7 (sensor 0 is bit 0, sensor 1 is bit 1).
1275:.\Generated_Source\PSoC4/CapSense_CSHL.c **** *  CapSense_sensorEnableMask[1] contains the masked bits for 
1276:.\Generated_Source\PSoC4/CapSense_CSHL.c **** *  sensors 8 through 15 (if needed), and so on.
1277:.\Generated_Source\PSoC4/CapSense_CSHL.c **** *  0 - sensor doesn't scan by CapSense_ScanEnabledWidgets().
1278:.\Generated_Source\PSoC4/CapSense_CSHL.c **** *  1 - sensor scans by CapSense_ScanEnabledWidgets().
1279:.\Generated_Source\PSoC4/CapSense_CSHL.c **** * 
1280:.\Generated_Source\PSoC4/CapSense_CSHL.c **** * Side Effects:
1281:.\Generated_Source\PSoC4/CapSense_CSHL.c **** *  None
1282:.\Generated_Source\PSoC4/CapSense_CSHL.c **** *
1283:.\Generated_Source\PSoC4/CapSense_CSHL.c **** *******************************************************************************/
1284:.\Generated_Source\PSoC4/CapSense_CSHL.c **** void CapSense_EnableWidget(uint32 widget)
1285:.\Generated_Source\PSoC4/CapSense_CSHL.c **** {
 1704              		.loc 1 1285 0
 1705              		.cfi_startproc
 1706 0000 80B5     		push	{r7, lr}
 1707              		.cfi_def_cfa_offset 8
 1708              		.cfi_offset 7, -8
 1709              		.cfi_offset 14, -4
 1710 0002 84B0     		sub	sp, sp, #16
 1711              		.cfi_def_cfa_offset 24
 1712 0004 00AF     		add	r7, sp, #0
 1713              		.cfi_def_cfa_register 7
 1714 0006 7860     		str	r0, [r7, #4]
1286:.\Generated_Source\PSoC4/CapSense_CSHL.c **** 
1287:.\Generated_Source\PSoC4/CapSense_CSHL.c ****     uint8 rawIndex = CapSense_rawDataIndex[widget];
 1715              		.loc 1 1287 0
ARM GAS  C:\Users\IEUser\AppData\Local\Temp\cctak5Pf.s 			page 54


 1716 0008 3B1C     		mov	r3, r7
 1717 000a 0F33     		add	r3, r3, #15
 1718 000c 0022     		mov	r2, #0
 1719 000e 1A70     		strb	r2, [r3]
1288:.\Generated_Source\PSoC4/CapSense_CSHL.c ****     uint8 numOfSensors = CapSense_numberOfSensors[widget] + rawIndex;
 1720              		.loc 1 1288 0
 1721 0010 0521     		mov	r1, #5
 1722 0012 3B1C     		mov	r3, r7
 1723 0014 0E33     		add	r3, r3, #14
 1724 0016 3A1C     		mov	r2, r7
 1725 0018 0F32     		add	r2, r2, #15
 1726 001a 1278     		ldrb	r2, [r2]
 1727 001c 8A18     		add	r2, r1, r2
 1728 001e 1A70     		strb	r2, [r3]
 1729              	.L113:
1289:.\Generated_Source\PSoC4/CapSense_CSHL.c ****     
1290:.\Generated_Source\PSoC4/CapSense_CSHL.c ****     /* Enable all sensors of widget */
1291:.\Generated_Source\PSoC4/CapSense_CSHL.c ****     do
1292:.\Generated_Source\PSoC4/CapSense_CSHL.c ****     {
1293:.\Generated_Source\PSoC4/CapSense_CSHL.c ****         CapSense_SetBitValue(CapSense_sensorEnableMask, (uint32)rawIndex, 1u);
 1730              		.loc 1 1293 0 discriminator 1
 1731 0020 3B1C     		mov	r3, r7
 1732 0022 0F33     		add	r3, r3, #15
 1733 0024 1B78     		ldrb	r3, [r3]
 1734 0026 0C4A     		ldr	r2, .L114
 1735 0028 101C     		mov	r0, r2
 1736 002a 191C     		mov	r1, r3
 1737 002c 0122     		mov	r2, #1
 1738 002e FFF7FEFF 		bl	CapSense_SetBitValue
1294:.\Generated_Source\PSoC4/CapSense_CSHL.c ****         rawIndex++;
 1739              		.loc 1 1294 0 discriminator 1
 1740 0032 3B1C     		mov	r3, r7
 1741 0034 0F33     		add	r3, r3, #15
 1742 0036 1A78     		ldrb	r2, [r3]
 1743 0038 3B1C     		mov	r3, r7
 1744 003a 0F33     		add	r3, r3, #15
 1745 003c 0132     		add	r2, r2, #1
 1746 003e 1A70     		strb	r2, [r3]
1295:.\Generated_Source\PSoC4/CapSense_CSHL.c ****     }
1296:.\Generated_Source\PSoC4/CapSense_CSHL.c ****     while(rawIndex < numOfSensors);
 1747              		.loc 1 1296 0 discriminator 1
 1748 0040 3A1C     		mov	r2, r7
 1749 0042 0F32     		add	r2, r2, #15
 1750 0044 3B1C     		mov	r3, r7
 1751 0046 0E33     		add	r3, r3, #14
 1752 0048 1278     		ldrb	r2, [r2]
 1753 004a 1B78     		ldrb	r3, [r3]
 1754 004c 9A42     		cmp	r2, r3
 1755 004e E7D3     		bcc	.L113
1297:.\Generated_Source\PSoC4/CapSense_CSHL.c **** }
 1756              		.loc 1 1297 0
 1757 0050 BD46     		mov	sp, r7
 1758 0052 04B0     		add	sp, sp, #16
 1759              		@ sp needed
 1760 0054 80BD     		pop	{r7, pc}
 1761              	.L115:
 1762 0056 C046     		.align	2
ARM GAS  C:\Users\IEUser\AppData\Local\Temp\cctak5Pf.s 			page 55


 1763              	.L114:
 1764 0058 00000000 		.word	CapSense_sensorEnableMask
 1765              		.cfi_endproc
 1766              	.LFE58:
 1767              		.size	CapSense_EnableWidget, .-CapSense_EnableWidget
 1768              		.section	.text.CapSense_DisableWidget,"ax",%progbits
 1769              		.align	2
 1770              		.global	CapSense_DisableWidget
 1771              		.code	16
 1772              		.thumb_func
 1773              		.type	CapSense_DisableWidget, %function
 1774              	CapSense_DisableWidget:
 1775              	.LFB59:
1298:.\Generated_Source\PSoC4/CapSense_CSHL.c **** 
1299:.\Generated_Source\PSoC4/CapSense_CSHL.c **** 
1300:.\Generated_Source\PSoC4/CapSense_CSHL.c **** /*******************************************************************************
1301:.\Generated_Source\PSoC4/CapSense_CSHL.c **** * Function Name: CapSense_DisableWidget
1302:.\Generated_Source\PSoC4/CapSense_CSHL.c **** ********************************************************************************
1303:.\Generated_Source\PSoC4/CapSense_CSHL.c **** *
1304:.\Generated_Source\PSoC4/CapSense_CSHL.c **** * Summary:
1305:.\Generated_Source\PSoC4/CapSense_CSHL.c **** *  Disables all the widget elements (sensors) from the scanning process.
1306:.\Generated_Source\PSoC4/CapSense_CSHL.c **** *
1307:.\Generated_Source\PSoC4/CapSense_CSHL.c **** * Parameters:
1308:.\Generated_Source\PSoC4/CapSense_CSHL.c **** *  widget:  widget number.
1309:.\Generated_Source\PSoC4/CapSense_CSHL.c **** *
1310:.\Generated_Source\PSoC4/CapSense_CSHL.c **** * Return:
1311:.\Generated_Source\PSoC4/CapSense_CSHL.c **** *  None
1312:.\Generated_Source\PSoC4/CapSense_CSHL.c **** *
1313:.\Generated_Source\PSoC4/CapSense_CSHL.c **** * Global Variables:
1314:.\Generated_Source\PSoC4/CapSense_CSHL.c **** *  CapSense_sensorEnableMask[] - used to store the sensor scanning 
1315:.\Generated_Source\PSoC4/CapSense_CSHL.c **** *  state.
1316:.\Generated_Source\PSoC4/CapSense_CSHL.c **** *  CapSense_sensorEnableMask[0] contains the masked bits for sensors 
1317:.\Generated_Source\PSoC4/CapSense_CSHL.c **** *  0 through 7 (sensor 0 is bit 0, sensor 1 is bit 1).
1318:.\Generated_Source\PSoC4/CapSense_CSHL.c **** *  CapSense_sensorEnableMask[1] contains the masked bits for 
1319:.\Generated_Source\PSoC4/CapSense_CSHL.c **** *  sensors 8 through 15 (if needed), and so on.
1320:.\Generated_Source\PSoC4/CapSense_CSHL.c **** *  0 - sensor isn't scanned by CapSense_ScanEnabledWidgets().
1321:.\Generated_Source\PSoC4/CapSense_CSHL.c **** *  1 - sensor is scanned by CapSense_ScanEnabledWidgets().
1322:.\Generated_Source\PSoC4/CapSense_CSHL.c **** * 
1323:.\Generated_Source\PSoC4/CapSense_CSHL.c **** * Side Effects:
1324:.\Generated_Source\PSoC4/CapSense_CSHL.c **** *  None
1325:.\Generated_Source\PSoC4/CapSense_CSHL.c **** *
1326:.\Generated_Source\PSoC4/CapSense_CSHL.c **** *******************************************************************************/
1327:.\Generated_Source\PSoC4/CapSense_CSHL.c **** void CapSense_DisableWidget(uint32 widget)
1328:.\Generated_Source\PSoC4/CapSense_CSHL.c **** {
 1776              		.loc 1 1328 0
 1777              		.cfi_startproc
 1778 0000 80B5     		push	{r7, lr}
 1779              		.cfi_def_cfa_offset 8
 1780              		.cfi_offset 7, -8
 1781              		.cfi_offset 14, -4
 1782 0002 84B0     		sub	sp, sp, #16
 1783              		.cfi_def_cfa_offset 24
 1784 0004 00AF     		add	r7, sp, #0
 1785              		.cfi_def_cfa_register 7
 1786 0006 7860     		str	r0, [r7, #4]
1329:.\Generated_Source\PSoC4/CapSense_CSHL.c ****     uint8 rawIndex = CapSense_rawDataIndex[widget];
 1787              		.loc 1 1329 0
ARM GAS  C:\Users\IEUser\AppData\Local\Temp\cctak5Pf.s 			page 56


 1788 0008 3B1C     		mov	r3, r7
 1789 000a 0F33     		add	r3, r3, #15
 1790 000c 0022     		mov	r2, #0
 1791 000e 1A70     		strb	r2, [r3]
1330:.\Generated_Source\PSoC4/CapSense_CSHL.c ****     uint8 numOfSensors = CapSense_numberOfSensors[widget] + rawIndex;
 1792              		.loc 1 1330 0
 1793 0010 0521     		mov	r1, #5
 1794 0012 3B1C     		mov	r3, r7
 1795 0014 0E33     		add	r3, r3, #14
 1796 0016 3A1C     		mov	r2, r7
 1797 0018 0F32     		add	r2, r2, #15
 1798 001a 1278     		ldrb	r2, [r2]
 1799 001c 8A18     		add	r2, r1, r2
 1800 001e 1A70     		strb	r2, [r3]
 1801              	.L117:
1331:.\Generated_Source\PSoC4/CapSense_CSHL.c ****    
1332:.\Generated_Source\PSoC4/CapSense_CSHL.c ****     /* Disable all sensors of widget */
1333:.\Generated_Source\PSoC4/CapSense_CSHL.c ****     do
1334:.\Generated_Source\PSoC4/CapSense_CSHL.c ****     {
1335:.\Generated_Source\PSoC4/CapSense_CSHL.c **** 
1336:.\Generated_Source\PSoC4/CapSense_CSHL.c ****         CapSense_SetBitValue(CapSense_sensorEnableMask, (uint32)rawIndex, 0u);
 1802              		.loc 1 1336 0 discriminator 1
 1803 0020 3B1C     		mov	r3, r7
 1804 0022 0F33     		add	r3, r3, #15
 1805 0024 1B78     		ldrb	r3, [r3]
 1806 0026 0C4A     		ldr	r2, .L118
 1807 0028 101C     		mov	r0, r2
 1808 002a 191C     		mov	r1, r3
 1809 002c 0022     		mov	r2, #0
 1810 002e FFF7FEFF 		bl	CapSense_SetBitValue
1337:.\Generated_Source\PSoC4/CapSense_CSHL.c ****         rawIndex++;
 1811              		.loc 1 1337 0 discriminator 1
 1812 0032 3B1C     		mov	r3, r7
 1813 0034 0F33     		add	r3, r3, #15
 1814 0036 1A78     		ldrb	r2, [r3]
 1815 0038 3B1C     		mov	r3, r7
 1816 003a 0F33     		add	r3, r3, #15
 1817 003c 0132     		add	r2, r2, #1
 1818 003e 1A70     		strb	r2, [r3]
1338:.\Generated_Source\PSoC4/CapSense_CSHL.c ****     }
1339:.\Generated_Source\PSoC4/CapSense_CSHL.c ****     while(rawIndex < numOfSensors);
 1819              		.loc 1 1339 0 discriminator 1
 1820 0040 3A1C     		mov	r2, r7
 1821 0042 0F32     		add	r2, r2, #15
 1822 0044 3B1C     		mov	r3, r7
 1823 0046 0E33     		add	r3, r3, #14
 1824 0048 1278     		ldrb	r2, [r2]
 1825 004a 1B78     		ldrb	r3, [r3]
 1826 004c 9A42     		cmp	r2, r3
 1827 004e E7D3     		bcc	.L117
1340:.\Generated_Source\PSoC4/CapSense_CSHL.c **** }
 1828              		.loc 1 1340 0
 1829 0050 BD46     		mov	sp, r7
 1830 0052 04B0     		add	sp, sp, #16
 1831              		@ sp needed
 1832 0054 80BD     		pop	{r7, pc}
 1833              	.L119:
ARM GAS  C:\Users\IEUser\AppData\Local\Temp\cctak5Pf.s 			page 57


 1834 0056 C046     		.align	2
 1835              	.L118:
 1836 0058 00000000 		.word	CapSense_sensorEnableMask
 1837              		.cfi_endproc
 1838              	.LFE59:
 1839              		.size	CapSense_DisableWidget, .-CapSense_DisableWidget
 1840              		.section	.text.CapSense_FindMaximum,"ax",%progbits
 1841              		.align	2
 1842              		.global	CapSense_FindMaximum
 1843              		.code	16
 1844              		.thumb_func
 1845              		.type	CapSense_FindMaximum, %function
 1846              	CapSense_FindMaximum:
 1847              	.LFB60:
1341:.\Generated_Source\PSoC4/CapSense_CSHL.c **** 
1342:.\Generated_Source\PSoC4/CapSense_CSHL.c **** 
1343:.\Generated_Source\PSoC4/CapSense_CSHL.c **** #if(CapSense_TOTAL_CENTROIDS_BASIC_COUNT)
1344:.\Generated_Source\PSoC4/CapSense_CSHL.c ****     /*******************************************************************************
1345:.\Generated_Source\PSoC4/CapSense_CSHL.c ****     * Function Name: CapSense_FindMaximum
1346:.\Generated_Source\PSoC4/CapSense_CSHL.c ****     ********************************************************************************
1347:.\Generated_Source\PSoC4/CapSense_CSHL.c ****     *
1348:.\Generated_Source\PSoC4/CapSense_CSHL.c ****     * Summary:
1349:.\Generated_Source\PSoC4/CapSense_CSHL.c ****     *  Finds the index of the maximum element within a defined centroid. Checks 
1350:.\Generated_Source\PSoC4/CapSense_CSHL.c ****     *  CapSense_sensorSignal[] within a defined centroid and 
1351:.\Generated_Source\PSoC4/CapSense_CSHL.c ****     *  returns the index of the maximum element. The values below the finger threshold are 
1352:.\Generated_Source\PSoC4/CapSense_CSHL.c ****     *  ignored.
1353:.\Generated_Source\PSoC4/CapSense_CSHL.c ****     *  The centroid is defined by offset of the first element and a number of elements - count.
1354:.\Generated_Source\PSoC4/CapSense_CSHL.c ****     *  The diplexed centroid requires at least two consecutive elements above
1355:.\Generated_Source\PSoC4/CapSense_CSHL.c ****     *  FingerThreshold to find the index of the maximum element.
1356:.\Generated_Source\PSoC4/CapSense_CSHL.c ****     * 
1357:.\Generated_Source\PSoC4/CapSense_CSHL.c ****     * Parameters:
1358:.\Generated_Source\PSoC4/CapSense_CSHL.c ****     *  offset:  Start index of centroid in CapSense_sensorSignal[] array.
1359:.\Generated_Source\PSoC4/CapSense_CSHL.c ****     *  count:   number of elements within centroid.
1360:.\Generated_Source\PSoC4/CapSense_CSHL.c ****     *  fingerThreshold:  Finger threshold.
1361:.\Generated_Source\PSoC4/CapSense_CSHL.c ****     *  diplex:   pointer to diplex table.
1362:.\Generated_Source\PSoC4/CapSense_CSHL.c ****     * 
1363:.\Generated_Source\PSoC4/CapSense_CSHL.c ****     * Return:
1364:.\Generated_Source\PSoC4/CapSense_CSHL.c ****     *  Returns the index of the maximum element within a defined centroid.
1365:.\Generated_Source\PSoC4/CapSense_CSHL.c ****     *  If the index of the maximum element isn't found it returns 0xFF.
1366:.\Generated_Source\PSoC4/CapSense_CSHL.c **** 	*
1367:.\Generated_Source\PSoC4/CapSense_CSHL.c **** 	* Global Variables:
1368:.\Generated_Source\PSoC4/CapSense_CSHL.c **** 	*  CapSense_startOfSlider[] - contains the index of the first slider element
1369:.\Generated_Source\PSoC4/CapSense_CSHL.c **** 	* 
1370:.\Generated_Source\PSoC4/CapSense_CSHL.c **** 	* Side Effects: 
1371:.\Generated_Source\PSoC4/CapSense_CSHL.c **** 	*  None
1372:.\Generated_Source\PSoC4/CapSense_CSHL.c **** 	* 
1373:.\Generated_Source\PSoC4/CapSense_CSHL.c ****     *******************************************************************************/
1374:.\Generated_Source\PSoC4/CapSense_CSHL.c **** 	#if (CapSense_IS_DIPLEX_SLIDER)
1375:.\Generated_Source\PSoC4/CapSense_CSHL.c **** 		uint8 CapSense_FindMaximum(uint8 offset, uint8 count, uint8 fingerThreshold, const uint8 *diplex)
1376:.\Generated_Source\PSoC4/CapSense_CSHL.c **** 	#else 
1377:.\Generated_Source\PSoC4/CapSense_CSHL.c **** 		uint8 CapSense_FindMaximum(uint8 offset, uint8 count, uint8 fingerThreshold)
1378:.\Generated_Source\PSoC4/CapSense_CSHL.c **** 	#endif /* (CapSense_IS_DIPLEX_SLIDER) */
1379:.\Generated_Source\PSoC4/CapSense_CSHL.c ****     {
 1848              		.loc 1 1379 0
 1849              		.cfi_startproc
 1850 0000 80B5     		push	{r7, lr}
 1851              		.cfi_def_cfa_offset 8
ARM GAS  C:\Users\IEUser\AppData\Local\Temp\cctak5Pf.s 			page 58


 1852              		.cfi_offset 7, -8
 1853              		.cfi_offset 14, -4
 1854 0002 84B0     		sub	sp, sp, #16
 1855              		.cfi_def_cfa_offset 24
 1856 0004 00AF     		add	r7, sp, #0
 1857              		.cfi_def_cfa_register 7
 1858 0006 FB1D     		add	r3, r7, #7
 1859 0008 1870     		strb	r0, [r3]
 1860 000a BB1D     		add	r3, r7, #6
 1861 000c 1970     		strb	r1, [r3]
 1862 000e 7B1D     		add	r3, r7, #5
 1863 0010 1A70     		strb	r2, [r3]
1380:.\Generated_Source\PSoC4/CapSense_CSHL.c ****         uint8 i;
1381:.\Generated_Source\PSoC4/CapSense_CSHL.c ****         #if (CapSense_IS_DIPLEX_SLIDER)        
1382:.\Generated_Source\PSoC4/CapSense_CSHL.c ****             uint8 curPos = 0u;
1383:.\Generated_Source\PSoC4/CapSense_CSHL.c ****             /* No centroid at Start */
1384:.\Generated_Source\PSoC4/CapSense_CSHL.c ****             uint8 curCntrdSize = 0u;
1385:.\Generated_Source\PSoC4/CapSense_CSHL.c ****             uint8 curCtrdStartPos = CapSense_MAXIMUM_CENTROID;
1386:.\Generated_Source\PSoC4/CapSense_CSHL.c ****             /* Biggest centroid is zero */
1387:.\Generated_Source\PSoC4/CapSense_CSHL.c ****             uint8 biggestCtrdSize = 0u;
1388:.\Generated_Source\PSoC4/CapSense_CSHL.c ****             uint8 biggestCtrdStartPos = 0u;
1389:.\Generated_Source\PSoC4/CapSense_CSHL.c ****         #endif /* (CapSense_IS_DIPLEX_SLIDER) */
1390:.\Generated_Source\PSoC4/CapSense_CSHL.c ****         uint8 maximum = CapSense_MAXIMUM_CENTROID;
 1864              		.loc 1 1390 0
 1865 0012 3B1C     		mov	r3, r7
 1866 0014 0E33     		add	r3, r3, #14
 1867 0016 FF22     		mov	r2, #255
 1868 0018 1A70     		strb	r2, [r3]
1391:.\Generated_Source\PSoC4/CapSense_CSHL.c **** 		
1392:.\Generated_Source\PSoC4/CapSense_CSHL.c ****         uint8 temp = 0u;
 1869              		.loc 1 1392 0
 1870 001a 3B1C     		mov	r3, r7
 1871 001c 0D33     		add	r3, r3, #13
 1872 001e 0022     		mov	r2, #0
 1873 0020 1A70     		strb	r2, [r3]
1393:.\Generated_Source\PSoC4/CapSense_CSHL.c ****         uint8 *startOfSlider = &CapSense_sensorSignal[offset];
 1874              		.loc 1 1393 0
 1875 0022 FB1D     		add	r3, r7, #7
 1876 0024 1A78     		ldrb	r2, [r3]
 1877 0026 204B     		ldr	r3, .L125
 1878 0028 D318     		add	r3, r2, r3
 1879 002a BB60     		str	r3, [r7, #8]
1394:.\Generated_Source\PSoC4/CapSense_CSHL.c **** 
1395:.\Generated_Source\PSoC4/CapSense_CSHL.c ****         #if (CapSense_IS_DIPLEX_SLIDER)        
1396:.\Generated_Source\PSoC4/CapSense_CSHL.c ****             if(diplex != 0u)
1397:.\Generated_Source\PSoC4/CapSense_CSHL.c ****             {
1398:.\Generated_Source\PSoC4/CapSense_CSHL.c ****                 /* Initialize */
1399:.\Generated_Source\PSoC4/CapSense_CSHL.c ****                 i = 0u;
1400:.\Generated_Source\PSoC4/CapSense_CSHL.c ****                 
1401:.\Generated_Source\PSoC4/CapSense_CSHL.c ****                 /* Make slider x2 as Diplexed */
1402:.\Generated_Source\PSoC4/CapSense_CSHL.c ****                 count <<= 1u;
1403:.\Generated_Source\PSoC4/CapSense_CSHL.c ****                 while(1u)
1404:.\Generated_Source\PSoC4/CapSense_CSHL.c ****                 { 
1405:.\Generated_Source\PSoC4/CapSense_CSHL.c ****                     if (startOfSlider[curPos] > 0u)    /* Looking for centroids */
1406:.\Generated_Source\PSoC4/CapSense_CSHL.c ****                     {
1407:.\Generated_Source\PSoC4/CapSense_CSHL.c ****                         if (curCtrdStartPos == CapSense_MAXIMUM_CENTROID)
1408:.\Generated_Source\PSoC4/CapSense_CSHL.c ****                         {
ARM GAS  C:\Users\IEUser\AppData\Local\Temp\cctak5Pf.s 			page 59


1409:.\Generated_Source\PSoC4/CapSense_CSHL.c ****                             /* Start of centroid */
1410:.\Generated_Source\PSoC4/CapSense_CSHL.c ****                             curCtrdStartPos = i;
1411:.\Generated_Source\PSoC4/CapSense_CSHL.c ****                             curCntrdSize++;
1412:.\Generated_Source\PSoC4/CapSense_CSHL.c ****                         }
1413:.\Generated_Source\PSoC4/CapSense_CSHL.c ****                         else
1414:.\Generated_Source\PSoC4/CapSense_CSHL.c ****                         {
1415:.\Generated_Source\PSoC4/CapSense_CSHL.c ****                             curCntrdSize++;
1416:.\Generated_Source\PSoC4/CapSense_CSHL.c ****                         }
1417:.\Generated_Source\PSoC4/CapSense_CSHL.c ****                     }
1418:.\Generated_Source\PSoC4/CapSense_CSHL.c ****                     else   /* Select biggest and indicate zero start */
1419:.\Generated_Source\PSoC4/CapSense_CSHL.c ****                     {          
1420:.\Generated_Source\PSoC4/CapSense_CSHL.c ****                         if(curCntrdSize > 0u)
1421:.\Generated_Source\PSoC4/CapSense_CSHL.c ****                         {
1422:.\Generated_Source\PSoC4/CapSense_CSHL.c ****                             /* We are at the end of current */
1423:.\Generated_Source\PSoC4/CapSense_CSHL.c ****                             if(curCntrdSize > biggestCtrdSize)
1424:.\Generated_Source\PSoC4/CapSense_CSHL.c ****                             {
1425:.\Generated_Source\PSoC4/CapSense_CSHL.c ****                                 biggestCtrdSize = curCntrdSize;
1426:.\Generated_Source\PSoC4/CapSense_CSHL.c ****                                 biggestCtrdStartPos = curCtrdStartPos;
1427:.\Generated_Source\PSoC4/CapSense_CSHL.c ****                             }
1428:.\Generated_Source\PSoC4/CapSense_CSHL.c ****                             
1429:.\Generated_Source\PSoC4/CapSense_CSHL.c ****                             curCntrdSize = 0u;
1430:.\Generated_Source\PSoC4/CapSense_CSHL.c ****                             curCtrdStartPos = CapSense_MAXIMUM_CENTROID;
1431:.\Generated_Source\PSoC4/CapSense_CSHL.c ****                         }
1432:.\Generated_Source\PSoC4/CapSense_CSHL.c ****                     }
1433:.\Generated_Source\PSoC4/CapSense_CSHL.c ****                     
1434:.\Generated_Source\PSoC4/CapSense_CSHL.c ****                     i++; 
1435:.\Generated_Source\PSoC4/CapSense_CSHL.c ****                     curPos = diplex[i];
1436:.\Generated_Source\PSoC4/CapSense_CSHL.c ****                     if(i == count)
1437:.\Generated_Source\PSoC4/CapSense_CSHL.c ****                     {
1438:.\Generated_Source\PSoC4/CapSense_CSHL.c ****                         break;
1439:.\Generated_Source\PSoC4/CapSense_CSHL.c ****                     }            
1440:.\Generated_Source\PSoC4/CapSense_CSHL.c ****                 }
1441:.\Generated_Source\PSoC4/CapSense_CSHL.c ****                     
1442:.\Generated_Source\PSoC4/CapSense_CSHL.c ****                     /* Find biggest centroid if two are same size, last one wins
1443:.\Generated_Source\PSoC4/CapSense_CSHL.c ****                        We are at the end of current */
1444:.\Generated_Source\PSoC4/CapSense_CSHL.c ****                 if (curCntrdSize >= biggestCtrdSize) 
1445:.\Generated_Source\PSoC4/CapSense_CSHL.c ****                 {
1446:.\Generated_Source\PSoC4/CapSense_CSHL.c ****                     biggestCtrdSize = curCntrdSize;
1447:.\Generated_Source\PSoC4/CapSense_CSHL.c ****                     biggestCtrdStartPos = curCtrdStartPos;
1448:.\Generated_Source\PSoC4/CapSense_CSHL.c ****                 }
1449:.\Generated_Source\PSoC4/CapSense_CSHL.c ****             }
1450:.\Generated_Source\PSoC4/CapSense_CSHL.c ****             else
1451:.\Generated_Source\PSoC4/CapSense_CSHL.c ****             {
1452:.\Generated_Source\PSoC4/CapSense_CSHL.c ****                 /* Without diplexing */ 
1453:.\Generated_Source\PSoC4/CapSense_CSHL.c ****                 biggestCtrdSize = count;
1454:.\Generated_Source\PSoC4/CapSense_CSHL.c ****             }
1455:.\Generated_Source\PSoC4/CapSense_CSHL.c ****                         
1456:.\Generated_Source\PSoC4/CapSense_CSHL.c **** 
1457:.\Generated_Source\PSoC4/CapSense_CSHL.c ****             /* Check centroid size */
1458:.\Generated_Source\PSoC4/CapSense_CSHL.c ****             #if (CapSense_IS_NON_DIPLEX_SLIDER)
1459:.\Generated_Source\PSoC4/CapSense_CSHL.c ****                 if((biggestCtrdSize >= 2u) || ((biggestCtrdSize == 1u) && (diplex == 0u)))
1460:.\Generated_Source\PSoC4/CapSense_CSHL.c ****             #else                    
1461:.\Generated_Source\PSoC4/CapSense_CSHL.c ****                 if(biggestCtrdSize >= 2u)
1462:.\Generated_Source\PSoC4/CapSense_CSHL.c ****             #endif /* (CapSense_IS_NON_DIPLEX_SLIDER) */
1463:.\Generated_Source\PSoC4/CapSense_CSHL.c ****                 {
1464:.\Generated_Source\PSoC4/CapSense_CSHL.c ****                     for (i = biggestCtrdStartPos; i < (biggestCtrdStartPos + biggestCtrdSize); i++)
1465:.\Generated_Source\PSoC4/CapSense_CSHL.c ****                     {
ARM GAS  C:\Users\IEUser\AppData\Local\Temp\cctak5Pf.s 			page 60


1466:.\Generated_Source\PSoC4/CapSense_CSHL.c ****                         #if (CapSense_IS_DIPLEX_SLIDER && CapSense_IS_NON_DIPLEX_SLIDER)
1467:.\Generated_Source\PSoC4/CapSense_CSHL.c ****                             if (diplex == 0u)
1468:.\Generated_Source\PSoC4/CapSense_CSHL.c ****                             {
1469:.\Generated_Source\PSoC4/CapSense_CSHL.c ****                                 curPos = i;
1470:.\Generated_Source\PSoC4/CapSense_CSHL.c ****                             }
1471:.\Generated_Source\PSoC4/CapSense_CSHL.c ****                             else
1472:.\Generated_Source\PSoC4/CapSense_CSHL.c ****                             {
1473:.\Generated_Source\PSoC4/CapSense_CSHL.c ****                                 curPos = diplex[i];
1474:.\Generated_Source\PSoC4/CapSense_CSHL.c ****                             }                    
1475:.\Generated_Source\PSoC4/CapSense_CSHL.c ****                         #elif (CapSense_IS_DIPLEX_SLIDER)                    
1476:.\Generated_Source\PSoC4/CapSense_CSHL.c ****                             curPos = diplex[i];                    
1477:.\Generated_Source\PSoC4/CapSense_CSHL.c ****                         #endif /* (CapSense_IS_DIPLEX_SLIDER && CapSense_IS_NON_DIPLEX_SLIDER) */
1478:.\Generated_Source\PSoC4/CapSense_CSHL.c ****                         /* Looking for greater element within centroid */
1479:.\Generated_Source\PSoC4/CapSense_CSHL.c ****                         if(startOfSlider[curPos] > fingerThreshold)
1480:.\Generated_Source\PSoC4/CapSense_CSHL.c ****                         {
1481:.\Generated_Source\PSoC4/CapSense_CSHL.c ****                             if(startOfSlider[curPos] > temp)
1482:.\Generated_Source\PSoC4/CapSense_CSHL.c ****                             {
1483:.\Generated_Source\PSoC4/CapSense_CSHL.c ****                                 maximum = i;
1484:.\Generated_Source\PSoC4/CapSense_CSHL.c ****                                 temp = startOfSlider[curPos];
1485:.\Generated_Source\PSoC4/CapSense_CSHL.c ****                             }
1486:.\Generated_Source\PSoC4/CapSense_CSHL.c ****                         }
1487:.\Generated_Source\PSoC4/CapSense_CSHL.c ****                     }
1488:.\Generated_Source\PSoC4/CapSense_CSHL.c ****                 } 
1489:.\Generated_Source\PSoC4/CapSense_CSHL.c ****         #else
1490:.\Generated_Source\PSoC4/CapSense_CSHL.c ****             for (i = 0u; i < count; i++)
 1880              		.loc 1 1490 0
 1881 002c 3B1C     		mov	r3, r7
 1882 002e 0F33     		add	r3, r3, #15
 1883 0030 0022     		mov	r2, #0
 1884 0032 1A70     		strb	r2, [r3]
 1885 0034 2AE0     		b	.L121
 1886              	.L123:
1491:.\Generated_Source\PSoC4/CapSense_CSHL.c ****             {                      
1492:.\Generated_Source\PSoC4/CapSense_CSHL.c ****                 /* Looking for greater element within centroid */
1493:.\Generated_Source\PSoC4/CapSense_CSHL.c ****                 if(startOfSlider[i] > fingerThreshold)
 1887              		.loc 1 1493 0
 1888 0036 3B1C     		mov	r3, r7
 1889 0038 0F33     		add	r3, r3, #15
 1890 003a 1B78     		ldrb	r3, [r3]
 1891 003c BA68     		ldr	r2, [r7, #8]
 1892 003e D318     		add	r3, r2, r3
 1893 0040 1B78     		ldrb	r3, [r3]
 1894 0042 7A1D     		add	r2, r7, #5
 1895 0044 1278     		ldrb	r2, [r2]
 1896 0046 9A42     		cmp	r2, r3
 1897 0048 19D2     		bcs	.L122
1494:.\Generated_Source\PSoC4/CapSense_CSHL.c ****                 {
1495:.\Generated_Source\PSoC4/CapSense_CSHL.c ****                     if(startOfSlider[i] > temp)
 1898              		.loc 1 1495 0
 1899 004a 3B1C     		mov	r3, r7
 1900 004c 0F33     		add	r3, r3, #15
 1901 004e 1B78     		ldrb	r3, [r3]
 1902 0050 BA68     		ldr	r2, [r7, #8]
 1903 0052 D318     		add	r3, r2, r3
 1904 0054 1B78     		ldrb	r3, [r3]
 1905 0056 3A1C     		mov	r2, r7
 1906 0058 0D32     		add	r2, r2, #13
ARM GAS  C:\Users\IEUser\AppData\Local\Temp\cctak5Pf.s 			page 61


 1907 005a 1278     		ldrb	r2, [r2]
 1908 005c 9A42     		cmp	r2, r3
 1909 005e 0ED2     		bcs	.L122
1496:.\Generated_Source\PSoC4/CapSense_CSHL.c ****                     {
1497:.\Generated_Source\PSoC4/CapSense_CSHL.c ****                         maximum = i;
 1910              		.loc 1 1497 0
 1911 0060 3B1C     		mov	r3, r7
 1912 0062 0E33     		add	r3, r3, #14
 1913 0064 3A1C     		mov	r2, r7
 1914 0066 0F32     		add	r2, r2, #15
 1915 0068 1278     		ldrb	r2, [r2]
 1916 006a 1A70     		strb	r2, [r3]
1498:.\Generated_Source\PSoC4/CapSense_CSHL.c ****                         temp = startOfSlider[i];
 1917              		.loc 1 1498 0
 1918 006c 3B1C     		mov	r3, r7
 1919 006e 0F33     		add	r3, r3, #15
 1920 0070 1B78     		ldrb	r3, [r3]
 1921 0072 BA68     		ldr	r2, [r7, #8]
 1922 0074 D218     		add	r2, r2, r3
 1923 0076 3B1C     		mov	r3, r7
 1924 0078 0D33     		add	r3, r3, #13
 1925 007a 1278     		ldrb	r2, [r2]
 1926 007c 1A70     		strb	r2, [r3]
 1927              	.L122:
1490:.\Generated_Source\PSoC4/CapSense_CSHL.c ****             for (i = 0u; i < count; i++)
 1928              		.loc 1 1490 0
 1929 007e 3B1C     		mov	r3, r7
 1930 0080 0F33     		add	r3, r3, #15
 1931 0082 1A78     		ldrb	r2, [r3]
 1932 0084 3B1C     		mov	r3, r7
 1933 0086 0F33     		add	r3, r3, #15
 1934 0088 0132     		add	r2, r2, #1
 1935 008a 1A70     		strb	r2, [r3]
 1936              	.L121:
1490:.\Generated_Source\PSoC4/CapSense_CSHL.c ****             for (i = 0u; i < count; i++)
 1937              		.loc 1 1490 0 is_stmt 0 discriminator 1
 1938 008c 3A1C     		mov	r2, r7
 1939 008e 0F32     		add	r2, r2, #15
 1940 0090 BB1D     		add	r3, r7, #6
 1941 0092 1278     		ldrb	r2, [r2]
 1942 0094 1B78     		ldrb	r3, [r3]
 1943 0096 9A42     		cmp	r2, r3
 1944 0098 CDD3     		bcc	.L123
1499:.\Generated_Source\PSoC4/CapSense_CSHL.c ****                     }
1500:.\Generated_Source\PSoC4/CapSense_CSHL.c ****                 }
1501:.\Generated_Source\PSoC4/CapSense_CSHL.c ****             }    
1502:.\Generated_Source\PSoC4/CapSense_CSHL.c ****         #endif /* (CapSense_IS_DIPLEX_SLIDER) */
1503:.\Generated_Source\PSoC4/CapSense_CSHL.c ****         return (maximum);
 1945              		.loc 1 1503 0 is_stmt 1
 1946 009a 3B1C     		mov	r3, r7
 1947 009c 0E33     		add	r3, r3, #14
 1948 009e 1B78     		ldrb	r3, [r3]
1504:.\Generated_Source\PSoC4/CapSense_CSHL.c ****     }
 1949              		.loc 1 1504 0
 1950 00a0 181C     		mov	r0, r3
 1951 00a2 BD46     		mov	sp, r7
 1952 00a4 04B0     		add	sp, sp, #16
ARM GAS  C:\Users\IEUser\AppData\Local\Temp\cctak5Pf.s 			page 62


 1953              		@ sp needed
 1954 00a6 80BD     		pop	{r7, pc}
 1955              	.L126:
 1956              		.align	2
 1957              	.L125:
 1958 00a8 00000000 		.word	CapSense_sensorSignal
 1959              		.cfi_endproc
 1960              	.LFE60:
 1961              		.size	CapSense_FindMaximum, .-CapSense_FindMaximum
 1962              		.global	__aeabi_idiv
 1963              		.section	.text.CapSense_CalcCentroid,"ax",%progbits
 1964              		.align	2
 1965              		.global	CapSense_CalcCentroid
 1966              		.code	16
 1967              		.thumb_func
 1968              		.type	CapSense_CalcCentroid, %function
 1969              	CapSense_CalcCentroid:
 1970              	.LFB61:
1505:.\Generated_Source\PSoC4/CapSense_CSHL.c ****     
1506:.\Generated_Source\PSoC4/CapSense_CSHL.c ****     
1507:.\Generated_Source\PSoC4/CapSense_CSHL.c ****     /*******************************************************************************
1508:.\Generated_Source\PSoC4/CapSense_CSHL.c ****     * Function Name: CapSense_CalcCentroid
1509:.\Generated_Source\PSoC4/CapSense_CSHL.c ****     ********************************************************************************
1510:.\Generated_Source\PSoC4/CapSense_CSHL.c ****     *
1511:.\Generated_Source\PSoC4/CapSense_CSHL.c ****     * Summary:
1512:.\Generated_Source\PSoC4/CapSense_CSHL.c ****     *  Returns a position value calculated according to the index of the maximum element and API
1513:.\Generated_Source\PSoC4/CapSense_CSHL.c ****     *  resolution.
1514:.\Generated_Source\PSoC4/CapSense_CSHL.c ****     *
1515:.\Generated_Source\PSoC4/CapSense_CSHL.c ****     * Parameters:
1516:.\Generated_Source\PSoC4/CapSense_CSHL.c ****     *  type:  widget type.
1517:.\Generated_Source\PSoC4/CapSense_CSHL.c ****     *  diplex:  pointer to diplex table.
1518:.\Generated_Source\PSoC4/CapSense_CSHL.c ****     *  maximum:  Index of maximum element within centroid.
1519:.\Generated_Source\PSoC4/CapSense_CSHL.c ****     *  offset:   Start index of centroid in CapSense_sensorSignal[] array.
1520:.\Generated_Source\PSoC4/CapSense_CSHL.c ****     *  count:    Number of elements within centroid.
1521:.\Generated_Source\PSoC4/CapSense_CSHL.c ****     *  resolution:  multiplicator calculated according to centroid type and
1522:.\Generated_Source\PSoC4/CapSense_CSHL.c ****     *  API resolution.
1523:.\Generated_Source\PSoC4/CapSense_CSHL.c ****     *  noiseThreshold:  Noise threshold.
1524:.\Generated_Source\PSoC4/CapSense_CSHL.c ****     * 
1525:.\Generated_Source\PSoC4/CapSense_CSHL.c ****     * Return:
1526:.\Generated_Source\PSoC4/CapSense_CSHL.c ****     *  Returns a position value of the slider.
1527:.\Generated_Source\PSoC4/CapSense_CSHL.c **** 	*
1528:.\Generated_Source\PSoC4/CapSense_CSHL.c **** 	* Side Effects: 
1529:.\Generated_Source\PSoC4/CapSense_CSHL.c **** 	*  None
1530:.\Generated_Source\PSoC4/CapSense_CSHL.c **** 	* 
1531:.\Generated_Source\PSoC4/CapSense_CSHL.c ****     *******************************************************************************/
1532:.\Generated_Source\PSoC4/CapSense_CSHL.c **** #if (CapSense_TOTAL_TRACKPAD_GESTURES_COUNT > 0u)
1533:.\Generated_Source\PSoC4/CapSense_CSHL.c ****     uint8 CapSense_CalcCentroid(uint8 maximum, uint8 offset, 
1534:.\Generated_Source\PSoC4/CapSense_CSHL.c ****                                         uint8 count, uint32 resolution, uint8 noiseThreshold)
1535:.\Generated_Source\PSoC4/CapSense_CSHL.c **** #else								
1536:.\Generated_Source\PSoC4/CapSense_CSHL.c ****     uint8 CapSense_CalcCentroid(uint8 maximum, uint8 offset, 
1537:.\Generated_Source\PSoC4/CapSense_CSHL.c ****                                         uint8 count, uint16 resolution, uint8 noiseThreshold)						
1538:.\Generated_Source\PSoC4/CapSense_CSHL.c **** #endif /* (CapSense_TOTAL_TRACKPAD_GESTURES_COUNT > 0u) */
1539:.\Generated_Source\PSoC4/CapSense_CSHL.c ****     {
 1971              		.loc 1 1539 0
 1972              		.cfi_startproc
 1973 0000 90B5     		push	{r4, r7, lr}
 1974              		.cfi_def_cfa_offset 12
ARM GAS  C:\Users\IEUser\AppData\Local\Temp\cctak5Pf.s 			page 63


 1975              		.cfi_offset 4, -12
 1976              		.cfi_offset 7, -8
 1977              		.cfi_offset 14, -4
 1978 0002 89B0     		sub	sp, sp, #36
 1979              		.cfi_def_cfa_offset 48
 1980 0004 00AF     		add	r7, sp, #0
 1981              		.cfi_def_cfa_register 7
 1982 0006 041C     		mov	r4, r0
 1983 0008 081C     		mov	r0, r1
 1984 000a 111C     		mov	r1, r2
 1985 000c 1A1C     		mov	r2, r3
 1986 000e FB1D     		add	r3, r7, #7
 1987 0010 1C70     		strb	r4, [r3]
 1988 0012 BB1D     		add	r3, r7, #6
 1989 0014 1870     		strb	r0, [r3]
 1990 0016 7B1D     		add	r3, r7, #5
 1991 0018 1970     		strb	r1, [r3]
 1992 001a BB1C     		add	r3, r7, #2
 1993 001c 1A80     		strh	r2, [r3]
1540:.\Generated_Source\PSoC4/CapSense_CSHL.c ****         #if ((CapSense_TOTAL_LINEAR_SLIDERS_COUNT > 0u) || (CapSense_TOTAL_TOUCH_PADS_BASIC_COUNT >
1541:.\Generated_Source\PSoC4/CapSense_CSHL.c ****             uint8 posPrev;
1542:.\Generated_Source\PSoC4/CapSense_CSHL.c ****             uint8 posNext;
1543:.\Generated_Source\PSoC4/CapSense_CSHL.c ****         #endif /* ((CapSense_TOTAL_LINEAR_SLIDERS_COUNT>0u) || (CapSense_TOTAL_TOUCH_PADS_BASIC_COU
1544:.\Generated_Source\PSoC4/CapSense_CSHL.c ****         
1545:.\Generated_Source\PSoC4/CapSense_CSHL.c ****         /* Helps during centroid calculation */
1546:.\Generated_Source\PSoC4/CapSense_CSHL.c ****         #if (CapSense_TOTAL_CENTROIDS_BASIC_COUNT)
1547:.\Generated_Source\PSoC4/CapSense_CSHL.c **** 		    static uint8 CapSense_centroid[3u];
1548:.\Generated_Source\PSoC4/CapSense_CSHL.c ****         #endif  /* (CapSense_TOTAL_CENTROIDS_BASIC_COUNT) */
1549:.\Generated_Source\PSoC4/CapSense_CSHL.c ****                
1550:.\Generated_Source\PSoC4/CapSense_CSHL.c ****         #if (CapSense_IS_DIPLEX_SLIDER)                
1551:.\Generated_Source\PSoC4/CapSense_CSHL.c ****             uint8 pos;
1552:.\Generated_Source\PSoC4/CapSense_CSHL.c ****         #endif /* (CapSense_IS_DIPLEX_SLIDER) */
1553:.\Generated_Source\PSoC4/CapSense_CSHL.c **** 
1554:.\Generated_Source\PSoC4/CapSense_CSHL.c ****         uint8 position;
1555:.\Generated_Source\PSoC4/CapSense_CSHL.c ****         uint32 numerator;
1556:.\Generated_Source\PSoC4/CapSense_CSHL.c ****         int32 denominator;
1557:.\Generated_Source\PSoC4/CapSense_CSHL.c **** 		
1558:.\Generated_Source\PSoC4/CapSense_CSHL.c **** 		uint8  *startOfSlider = &CapSense_sensorSignal[offset];
 1994              		.loc 1 1558 0
 1995 001e BB1D     		add	r3, r7, #6
 1996 0020 1A78     		ldrb	r2, [r3]
 1997 0022 5A4B     		ldr	r3, .L137
 1998 0024 D318     		add	r3, r2, r3
 1999 0026 BB61     		str	r3, [r7, #24]
1559:.\Generated_Source\PSoC4/CapSense_CSHL.c **** 		
1560:.\Generated_Source\PSoC4/CapSense_CSHL.c ****         #if ((CapSense_TOTAL_LINEAR_SLIDERS_COUNT > 0u) || (CapSense_TOTAL_TOUCH_PADS_BASIC_COUNT >
1561:.\Generated_Source\PSoC4/CapSense_CSHL.c ****             posPrev = 0u;
 2000              		.loc 1 1561 0
 2001 0028 3B1C     		mov	r3, r7
 2002 002a 1F33     		add	r3, r3, #31
 2003 002c 0022     		mov	r2, #0
 2004 002e 1A70     		strb	r2, [r3]
1562:.\Generated_Source\PSoC4/CapSense_CSHL.c ****         #endif /* ((CapSense_TOTAL_LINEAR_SLIDERS_COUNT>0u) || (CapSense_TOTAL_TOUCH_PADS_BASIC_COU
1563:.\Generated_Source\PSoC4/CapSense_CSHL.c ****      
1564:.\Generated_Source\PSoC4/CapSense_CSHL.c ****         #if (CapSense_ADD_SLIDER_TYPE)
1565:.\Generated_Source\PSoC4/CapSense_CSHL.c ****             if(type == CapSense_TYPE_RADIAL_SLIDER)
1566:.\Generated_Source\PSoC4/CapSense_CSHL.c ****             {
ARM GAS  C:\Users\IEUser\AppData\Local\Temp\cctak5Pf.s 			page 64


1567:.\Generated_Source\PSoC4/CapSense_CSHL.c ****         #endif /* (CapSense_ADD_SLIDER_TYPE) */
1568:.\Generated_Source\PSoC4/CapSense_CSHL.c **** 
1569:.\Generated_Source\PSoC4/CapSense_CSHL.c ****             #if (CapSense_TOTAL_RADIAL_SLIDERS_COUNT > 0u)                
1570:.\Generated_Source\PSoC4/CapSense_CSHL.c ****                 /* Copy Signal to the centroid array */
1571:.\Generated_Source\PSoC4/CapSense_CSHL.c ****                 CapSense_centroid[CapSense_POS] = startOfSlider[maximum];
1572:.\Generated_Source\PSoC4/CapSense_CSHL.c ****                  
1573:.\Generated_Source\PSoC4/CapSense_CSHL.c ****                 /* Check borders for ROTARY Slider */
1574:.\Generated_Source\PSoC4/CapSense_CSHL.c ****                 if (maximum == 0u)                   /* Start of centroid */
1575:.\Generated_Source\PSoC4/CapSense_CSHL.c ****                 { 
1576:.\Generated_Source\PSoC4/CapSense_CSHL.c ****                     CapSense_centroid[CapSense_POS_PREV] = startOfSlider[count - 1u];
1577:.\Generated_Source\PSoC4/CapSense_CSHL.c ****                     CapSense_centroid[CapSense_POS_NEXT] = startOfSlider[1u];
1578:.\Generated_Source\PSoC4/CapSense_CSHL.c ****                 }
1579:.\Generated_Source\PSoC4/CapSense_CSHL.c ****                 else if (maximum == (count - 1u))    /* End of centroid */
1580:.\Generated_Source\PSoC4/CapSense_CSHL.c ****                 {
1581:.\Generated_Source\PSoC4/CapSense_CSHL.c ****                     CapSense_centroid[CapSense_POS_PREV] = startOfSlider[maximum - 1u];
1582:.\Generated_Source\PSoC4/CapSense_CSHL.c ****                     CapSense_centroid[CapSense_POS_NEXT] = startOfSlider[0u];
1583:.\Generated_Source\PSoC4/CapSense_CSHL.c ****                 }
1584:.\Generated_Source\PSoC4/CapSense_CSHL.c ****                 else                                /* Not first Not last */
1585:.\Generated_Source\PSoC4/CapSense_CSHL.c ****                 {
1586:.\Generated_Source\PSoC4/CapSense_CSHL.c ****                     CapSense_centroid[CapSense_POS_PREV] = startOfSlider[maximum - 1u];
1587:.\Generated_Source\PSoC4/CapSense_CSHL.c ****                     CapSense_centroid[CapSense_POS_NEXT] = startOfSlider[maximum + 1u];
1588:.\Generated_Source\PSoC4/CapSense_CSHL.c ****                 }
1589:.\Generated_Source\PSoC4/CapSense_CSHL.c ****             #endif /* (CapSense_TOTAL_RADIAL_SLIDERS_COUNT > 0u) */
1590:.\Generated_Source\PSoC4/CapSense_CSHL.c **** 
1591:.\Generated_Source\PSoC4/CapSense_CSHL.c ****         #if (CapSense_ADD_SLIDER_TYPE)
1592:.\Generated_Source\PSoC4/CapSense_CSHL.c ****             }
1593:.\Generated_Source\PSoC4/CapSense_CSHL.c ****             else
1594:.\Generated_Source\PSoC4/CapSense_CSHL.c ****             {
1595:.\Generated_Source\PSoC4/CapSense_CSHL.c ****         #endif /* (CapSense_ADD_SLIDER_TYPE) */
1596:.\Generated_Source\PSoC4/CapSense_CSHL.c **** 
1597:.\Generated_Source\PSoC4/CapSense_CSHL.c ****             #if ((CapSense_TOTAL_LINEAR_SLIDERS_COUNT > 0u) || (CapSense_TOTAL_TOUCH_PADS_BASIC_COU
1598:.\Generated_Source\PSoC4/CapSense_CSHL.c ****                 #if (CapSense_IS_DIPLEX_SLIDER && CapSense_IS_NON_DIPLEX_SLIDER)                   
1599:.\Generated_Source\PSoC4/CapSense_CSHL.c ****                     /* Calculate next and previous near to maximum */
1600:.\Generated_Source\PSoC4/CapSense_CSHL.c ****                     if(diplex == 0u)
1601:.\Generated_Source\PSoC4/CapSense_CSHL.c ****                     {
1602:.\Generated_Source\PSoC4/CapSense_CSHL.c ****                         pos     = maximum;
1603:.\Generated_Source\PSoC4/CapSense_CSHL.c ****                         posPrev = maximum - 1u;
1604:.\Generated_Source\PSoC4/CapSense_CSHL.c ****                         posNext = maximum + 1u; 
1605:.\Generated_Source\PSoC4/CapSense_CSHL.c ****                     }
1606:.\Generated_Source\PSoC4/CapSense_CSHL.c ****                     else
1607:.\Generated_Source\PSoC4/CapSense_CSHL.c ****                     {
1608:.\Generated_Source\PSoC4/CapSense_CSHL.c ****                         pos     = diplex[maximum];
1609:.\Generated_Source\PSoC4/CapSense_CSHL.c ****                         posPrev = diplex[maximum - 1u];
1610:.\Generated_Source\PSoC4/CapSense_CSHL.c ****                         posNext = diplex[maximum + 1u];
1611:.\Generated_Source\PSoC4/CapSense_CSHL.c ****                         count <<= 1u;
1612:.\Generated_Source\PSoC4/CapSense_CSHL.c ****                     }                    
1613:.\Generated_Source\PSoC4/CapSense_CSHL.c ****                 #elif (CapSense_IS_DIPLEX_SLIDER)
1614:.\Generated_Source\PSoC4/CapSense_CSHL.c ****                     /* Calculate next and previous near to maximum */
1615:.\Generated_Source\PSoC4/CapSense_CSHL.c ****                     pos     = diplex[maximum];
1616:.\Generated_Source\PSoC4/CapSense_CSHL.c ****                     posPrev = diplex[maximum - 1u];
1617:.\Generated_Source\PSoC4/CapSense_CSHL.c ****                     posNext = diplex[maximum + 1u];
1618:.\Generated_Source\PSoC4/CapSense_CSHL.c ****                     count <<= 1u;                    
1619:.\Generated_Source\PSoC4/CapSense_CSHL.c ****                 #else                    
1620:.\Generated_Source\PSoC4/CapSense_CSHL.c ****                     /* Calculate next and previous near to maximum */
1621:.\Generated_Source\PSoC4/CapSense_CSHL.c ****                     if (maximum >= 1u)
 2005              		.loc 1 1621 0
 2006 0030 FB1D     		add	r3, r7, #7
ARM GAS  C:\Users\IEUser\AppData\Local\Temp\cctak5Pf.s 			page 65


 2007 0032 1B78     		ldrb	r3, [r3]
 2008 0034 002B     		cmp	r3, #0
 2009 0036 05D0     		beq	.L128
1622:.\Generated_Source\PSoC4/CapSense_CSHL.c ****                     {
1623:.\Generated_Source\PSoC4/CapSense_CSHL.c ****                         posPrev = maximum - 1u;
 2010              		.loc 1 1623 0
 2011 0038 3B1C     		mov	r3, r7
 2012 003a 1F33     		add	r3, r3, #31
 2013 003c FA1D     		add	r2, r7, #7
 2014 003e 1278     		ldrb	r2, [r2]
 2015 0040 013A     		sub	r2, r2, #1
 2016 0042 1A70     		strb	r2, [r3]
 2017              	.L128:
1624:.\Generated_Source\PSoC4/CapSense_CSHL.c ****                     }
1625:.\Generated_Source\PSoC4/CapSense_CSHL.c ****                     posNext = maximum + 1u;
 2018              		.loc 1 1625 0
 2019 0044 3B1C     		mov	r3, r7
 2020 0046 1733     		add	r3, r3, #23
 2021 0048 FA1D     		add	r2, r7, #7
 2022 004a 1278     		ldrb	r2, [r2]
 2023 004c 0132     		add	r2, r2, #1
 2024 004e 1A70     		strb	r2, [r3]
1626:.\Generated_Source\PSoC4/CapSense_CSHL.c ****                 #endif /* (CapSense_IS_DIPLEX_SLIDER && CapSense_IS_NON_DIPLEX_SLIDER) */
1627:.\Generated_Source\PSoC4/CapSense_CSHL.c ****                         
1628:.\Generated_Source\PSoC4/CapSense_CSHL.c ****                 /* Copy Signal to the centroid array */
1629:.\Generated_Source\PSoC4/CapSense_CSHL.c ****                 #if (CapSense_IS_DIPLEX_SLIDER)
1630:.\Generated_Source\PSoC4/CapSense_CSHL.c ****                     CapSense_centroid[CapSense_POS] = startOfSlider[pos];
1631:.\Generated_Source\PSoC4/CapSense_CSHL.c ****                 #else
1632:.\Generated_Source\PSoC4/CapSense_CSHL.c ****                     CapSense_centroid[CapSense_POS] = startOfSlider[maximum];
 2025              		.loc 1 1632 0
 2026 0050 FB1D     		add	r3, r7, #7
 2027 0052 1B78     		ldrb	r3, [r3]
 2028 0054 BA69     		ldr	r2, [r7, #24]
 2029 0056 D318     		add	r3, r2, r3
 2030 0058 1A78     		ldrb	r2, [r3]
 2031 005a 4D4B     		ldr	r3, .L137+4
 2032 005c 5A70     		strb	r2, [r3, #1]
1633:.\Generated_Source\PSoC4/CapSense_CSHL.c ****                 #endif /* (CapSense_IS_DIPLEX_SLIDER) */
1634:.\Generated_Source\PSoC4/CapSense_CSHL.c ****                     
1635:.\Generated_Source\PSoC4/CapSense_CSHL.c ****                 /* Check borders for LINEAR Slider */
1636:.\Generated_Source\PSoC4/CapSense_CSHL.c ****                 if (maximum == 0u)                   /* Start of centroid */
 2033              		.loc 1 1636 0
 2034 005e FB1D     		add	r3, r7, #7
 2035 0060 1B78     		ldrb	r3, [r3]
 2036 0062 002B     		cmp	r3, #0
 2037 0064 0BD1     		bne	.L129
1637:.\Generated_Source\PSoC4/CapSense_CSHL.c ****                 { 
1638:.\Generated_Source\PSoC4/CapSense_CSHL.c ****                     CapSense_centroid[CapSense_POS_PREV] = 0u;
 2038              		.loc 1 1638 0
 2039 0066 4A4B     		ldr	r3, .L137+4
 2040 0068 0022     		mov	r2, #0
 2041 006a 1A70     		strb	r2, [r3]
1639:.\Generated_Source\PSoC4/CapSense_CSHL.c ****                     CapSense_centroid[CapSense_POS_NEXT] = startOfSlider[posNext];
 2042              		.loc 1 1639 0
 2043 006c 3B1C     		mov	r3, r7
 2044 006e 1733     		add	r3, r3, #23
 2045 0070 1B78     		ldrb	r3, [r3]
ARM GAS  C:\Users\IEUser\AppData\Local\Temp\cctak5Pf.s 			page 66


 2046 0072 BA69     		ldr	r2, [r7, #24]
 2047 0074 D318     		add	r3, r2, r3
 2048 0076 1A78     		ldrb	r2, [r3]
 2049 0078 454B     		ldr	r3, .L137+4
 2050 007a 9A70     		strb	r2, [r3, #2]
 2051 007c 22E0     		b	.L130
 2052              	.L129:
1640:.\Generated_Source\PSoC4/CapSense_CSHL.c ****                 }
1641:.\Generated_Source\PSoC4/CapSense_CSHL.c ****                 else if (maximum == ((count) - 1u)) /* End of centroid */
 2053              		.loc 1 1641 0
 2054 007e FB1D     		add	r3, r7, #7
 2055 0080 1A78     		ldrb	r2, [r3]
 2056 0082 7B1D     		add	r3, r7, #5
 2057 0084 1B78     		ldrb	r3, [r3]
 2058 0086 013B     		sub	r3, r3, #1
 2059 0088 9A42     		cmp	r2, r3
 2060 008a 0BD1     		bne	.L131
1642:.\Generated_Source\PSoC4/CapSense_CSHL.c ****                 {
1643:.\Generated_Source\PSoC4/CapSense_CSHL.c ****                     CapSense_centroid[CapSense_POS_PREV] = startOfSlider[posPrev];
 2061              		.loc 1 1643 0
 2062 008c 3B1C     		mov	r3, r7
 2063 008e 1F33     		add	r3, r3, #31
 2064 0090 1B78     		ldrb	r3, [r3]
 2065 0092 BA69     		ldr	r2, [r7, #24]
 2066 0094 D318     		add	r3, r2, r3
 2067 0096 1A78     		ldrb	r2, [r3]
 2068 0098 3D4B     		ldr	r3, .L137+4
 2069 009a 1A70     		strb	r2, [r3]
1644:.\Generated_Source\PSoC4/CapSense_CSHL.c ****                     CapSense_centroid[CapSense_POS_NEXT] = 0u;
 2070              		.loc 1 1644 0
 2071 009c 3C4B     		ldr	r3, .L137+4
 2072 009e 0022     		mov	r2, #0
 2073 00a0 9A70     		strb	r2, [r3, #2]
 2074 00a2 0FE0     		b	.L130
 2075              	.L131:
1645:.\Generated_Source\PSoC4/CapSense_CSHL.c ****                 }
1646:.\Generated_Source\PSoC4/CapSense_CSHL.c ****                 else                                /* Not first Not last */
1647:.\Generated_Source\PSoC4/CapSense_CSHL.c ****                 {
1648:.\Generated_Source\PSoC4/CapSense_CSHL.c ****                     CapSense_centroid[CapSense_POS_PREV] = startOfSlider[posPrev];
 2076              		.loc 1 1648 0
 2077 00a4 3B1C     		mov	r3, r7
 2078 00a6 1F33     		add	r3, r3, #31
 2079 00a8 1B78     		ldrb	r3, [r3]
 2080 00aa BA69     		ldr	r2, [r7, #24]
 2081 00ac D318     		add	r3, r2, r3
 2082 00ae 1A78     		ldrb	r2, [r3]
 2083 00b0 374B     		ldr	r3, .L137+4
 2084 00b2 1A70     		strb	r2, [r3]
1649:.\Generated_Source\PSoC4/CapSense_CSHL.c ****                     CapSense_centroid[CapSense_POS_NEXT] = startOfSlider[posNext];
 2085              		.loc 1 1649 0
 2086 00b4 3B1C     		mov	r3, r7
 2087 00b6 1733     		add	r3, r3, #23
 2088 00b8 1B78     		ldrb	r3, [r3]
 2089 00ba BA69     		ldr	r2, [r7, #24]
 2090 00bc D318     		add	r3, r2, r3
 2091 00be 1A78     		ldrb	r2, [r3]
 2092 00c0 334B     		ldr	r3, .L137+4
ARM GAS  C:\Users\IEUser\AppData\Local\Temp\cctak5Pf.s 			page 67


 2093 00c2 9A70     		strb	r2, [r3, #2]
 2094              	.L130:
1650:.\Generated_Source\PSoC4/CapSense_CSHL.c ****                 }
1651:.\Generated_Source\PSoC4/CapSense_CSHL.c ****             #endif /* ((CapSense_TOTAL_LINEAR_SLIDERS_COUNT>0u)||(CapSense_TOTAL_TOUCH_PADS_BASIC_C
1652:.\Generated_Source\PSoC4/CapSense_CSHL.c **** 
1653:.\Generated_Source\PSoC4/CapSense_CSHL.c ****         #if (CapSense_ADD_SLIDER_TYPE)
1654:.\Generated_Source\PSoC4/CapSense_CSHL.c ****             }
1655:.\Generated_Source\PSoC4/CapSense_CSHL.c ****         #endif /* (CapSense_ADD_SLIDER_TYPE) */
1656:.\Generated_Source\PSoC4/CapSense_CSHL.c ****     
1657:.\Generated_Source\PSoC4/CapSense_CSHL.c ****         /* Subtract noiseThreshold */
1658:.\Generated_Source\PSoC4/CapSense_CSHL.c ****         if(CapSense_centroid[CapSense_POS_PREV] > noiseThreshold)
 2095              		.loc 1 1658 0
 2096 00c4 324B     		ldr	r3, .L137+4
 2097 00c6 1B78     		ldrb	r3, [r3]
 2098 00c8 3A1C     		mov	r2, r7
 2099 00ca 3032     		add	r2, r2, #48
 2100 00cc 1278     		ldrb	r2, [r2]
 2101 00ce 9A42     		cmp	r2, r3
 2102 00d0 09D2     		bcs	.L132
1659:.\Generated_Source\PSoC4/CapSense_CSHL.c ****         {
1660:.\Generated_Source\PSoC4/CapSense_CSHL.c ****             CapSense_centroid[CapSense_POS_PREV] -= noiseThreshold;
 2103              		.loc 1 1660 0
 2104 00d2 2F4B     		ldr	r3, .L137+4
 2105 00d4 1A78     		ldrb	r2, [r3]
 2106 00d6 3B1C     		mov	r3, r7
 2107 00d8 3033     		add	r3, r3, #48
 2108 00da 1B78     		ldrb	r3, [r3]
 2109 00dc D31A     		sub	r3, r2, r3
 2110 00de DAB2     		uxtb	r2, r3
 2111 00e0 2B4B     		ldr	r3, .L137+4
 2112 00e2 1A70     		strb	r2, [r3]
 2113 00e4 02E0     		b	.L133
 2114              	.L132:
1661:.\Generated_Source\PSoC4/CapSense_CSHL.c ****         }
1662:.\Generated_Source\PSoC4/CapSense_CSHL.c ****         else
1663:.\Generated_Source\PSoC4/CapSense_CSHL.c ****         {
1664:.\Generated_Source\PSoC4/CapSense_CSHL.c ****             CapSense_centroid[CapSense_POS_PREV] = 0u;
 2115              		.loc 1 1664 0
 2116 00e6 2A4B     		ldr	r3, .L137+4
 2117 00e8 0022     		mov	r2, #0
 2118 00ea 1A70     		strb	r2, [r3]
 2119              	.L133:
1665:.\Generated_Source\PSoC4/CapSense_CSHL.c ****         }
1666:.\Generated_Source\PSoC4/CapSense_CSHL.c ****         
1667:.\Generated_Source\PSoC4/CapSense_CSHL.c ****         /* Maximum always greater than fingerThreshold, so greater than noiseThreshold */
1668:.\Generated_Source\PSoC4/CapSense_CSHL.c ****         CapSense_centroid[CapSense_POS] -= noiseThreshold;
 2120              		.loc 1 1668 0
 2121 00ec 284B     		ldr	r3, .L137+4
 2122 00ee 5A78     		ldrb	r2, [r3, #1]
 2123 00f0 3B1C     		mov	r3, r7
 2124 00f2 3033     		add	r3, r3, #48
 2125 00f4 1B78     		ldrb	r3, [r3]
 2126 00f6 D31A     		sub	r3, r2, r3
 2127 00f8 DAB2     		uxtb	r2, r3
 2128 00fa 254B     		ldr	r3, .L137+4
 2129 00fc 5A70     		strb	r2, [r3, #1]
1669:.\Generated_Source\PSoC4/CapSense_CSHL.c ****         
ARM GAS  C:\Users\IEUser\AppData\Local\Temp\cctak5Pf.s 			page 68


1670:.\Generated_Source\PSoC4/CapSense_CSHL.c ****         /* Subtract noiseThreshold */
1671:.\Generated_Source\PSoC4/CapSense_CSHL.c ****         if(CapSense_centroid[CapSense_POS_NEXT] > noiseThreshold)
 2130              		.loc 1 1671 0
 2131 00fe 244B     		ldr	r3, .L137+4
 2132 0100 9B78     		ldrb	r3, [r3, #2]
 2133 0102 3A1C     		mov	r2, r7
 2134 0104 3032     		add	r2, r2, #48
 2135 0106 1278     		ldrb	r2, [r2]
 2136 0108 9A42     		cmp	r2, r3
 2137 010a 09D2     		bcs	.L134
1672:.\Generated_Source\PSoC4/CapSense_CSHL.c ****         {
1673:.\Generated_Source\PSoC4/CapSense_CSHL.c ****             CapSense_centroid[CapSense_POS_NEXT] -= noiseThreshold;
 2138              		.loc 1 1673 0
 2139 010c 204B     		ldr	r3, .L137+4
 2140 010e 9A78     		ldrb	r2, [r3, #2]
 2141 0110 3B1C     		mov	r3, r7
 2142 0112 3033     		add	r3, r3, #48
 2143 0114 1B78     		ldrb	r3, [r3]
 2144 0116 D31A     		sub	r3, r2, r3
 2145 0118 DAB2     		uxtb	r2, r3
 2146 011a 1D4B     		ldr	r3, .L137+4
 2147 011c 9A70     		strb	r2, [r3, #2]
 2148 011e 02E0     		b	.L135
 2149              	.L134:
1674:.\Generated_Source\PSoC4/CapSense_CSHL.c ****         }
1675:.\Generated_Source\PSoC4/CapSense_CSHL.c ****         else
1676:.\Generated_Source\PSoC4/CapSense_CSHL.c ****         {
1677:.\Generated_Source\PSoC4/CapSense_CSHL.c ****             CapSense_centroid[CapSense_POS_NEXT] = 0u;
 2150              		.loc 1 1677 0
 2151 0120 1B4B     		ldr	r3, .L137+4
 2152 0122 0022     		mov	r2, #0
 2153 0124 9A70     		strb	r2, [r3, #2]
 2154              	.L135:
1678:.\Generated_Source\PSoC4/CapSense_CSHL.c ****         }
1679:.\Generated_Source\PSoC4/CapSense_CSHL.c ****         
1680:.\Generated_Source\PSoC4/CapSense_CSHL.c ****         
1681:.\Generated_Source\PSoC4/CapSense_CSHL.c ****         /* Si+1 - Si-1 */
1682:.\Generated_Source\PSoC4/CapSense_CSHL.c ****         numerator = (uint32) CapSense_centroid[CapSense_POS_NEXT] -
 2155              		.loc 1 1682 0
 2156 0126 1A4B     		ldr	r3, .L137+4
 2157 0128 9B78     		ldrb	r3, [r3, #2]
 2158 012a 1A1C     		mov	r2, r3
1683:.\Generated_Source\PSoC4/CapSense_CSHL.c ****                     (uint32) CapSense_centroid[CapSense_POS_PREV];
 2159              		.loc 1 1683 0
 2160 012c 184B     		ldr	r3, .L137+4
 2161 012e 1B78     		ldrb	r3, [r3]
1682:.\Generated_Source\PSoC4/CapSense_CSHL.c ****         numerator = (uint32) CapSense_centroid[CapSense_POS_NEXT] -
 2162              		.loc 1 1682 0
 2163 0130 D31A     		sub	r3, r2, r3
 2164 0132 3B61     		str	r3, [r7, #16]
1684:.\Generated_Source\PSoC4/CapSense_CSHL.c **** 
1685:.\Generated_Source\PSoC4/CapSense_CSHL.c ****         /* Si+1 + Si + Si-1 */
1686:.\Generated_Source\PSoC4/CapSense_CSHL.c ****         denominator = (int32) CapSense_centroid[CapSense_POS_PREV] + 
 2165              		.loc 1 1686 0
 2166 0134 164B     		ldr	r3, .L137+4
 2167 0136 1B78     		ldrb	r3, [r3]
 2168 0138 1A1C     		mov	r2, r3
ARM GAS  C:\Users\IEUser\AppData\Local\Temp\cctak5Pf.s 			page 69


1687:.\Generated_Source\PSoC4/CapSense_CSHL.c ****                       (int32) CapSense_centroid[CapSense_POS] + 
 2169              		.loc 1 1687 0
 2170 013a 154B     		ldr	r3, .L137+4
 2171 013c 5B78     		ldrb	r3, [r3, #1]
1686:.\Generated_Source\PSoC4/CapSense_CSHL.c ****         denominator = (int32) CapSense_centroid[CapSense_POS_PREV] + 
 2172              		.loc 1 1686 0
 2173 013e D218     		add	r2, r2, r3
1688:.\Generated_Source\PSoC4/CapSense_CSHL.c ****                       (int32) CapSense_centroid[CapSense_POS_NEXT];
 2174              		.loc 1 1688 0
 2175 0140 134B     		ldr	r3, .L137+4
 2176 0142 9B78     		ldrb	r3, [r3, #2]
1686:.\Generated_Source\PSoC4/CapSense_CSHL.c ****         denominator = (int32) CapSense_centroid[CapSense_POS_PREV] + 
 2177              		.loc 1 1686 0
 2178 0144 D318     		add	r3, r2, r3
 2179 0146 FB60     		str	r3, [r7, #12]
1689:.\Generated_Source\PSoC4/CapSense_CSHL.c ****         
1690:.\Generated_Source\PSoC4/CapSense_CSHL.c ****         /* (numerator/denominator) + maximum */
1691:.\Generated_Source\PSoC4/CapSense_CSHL.c ****         denominator = (((int32)(uint32)((uint32)numerator << 8u)/denominator) + (int32)(uint32)((ui
 2180              		.loc 1 1691 0
 2181 0148 3B69     		ldr	r3, [r7, #16]
 2182 014a 1B02     		lsl	r3, r3, #8
 2183 014c 181C     		mov	r0, r3
 2184 014e F968     		ldr	r1, [r7, #12]
 2185 0150 FFF7FEFF 		bl	__aeabi_idiv
 2186 0154 031C     		mov	r3, r0
 2187 0156 1A1C     		mov	r2, r3
 2188 0158 FB1D     		add	r3, r7, #7
 2189 015a 1B78     		ldrb	r3, [r3]
 2190 015c 1B02     		lsl	r3, r3, #8
 2191 015e D318     		add	r3, r2, r3
 2192 0160 FB60     		str	r3, [r7, #12]
1692:.\Generated_Source\PSoC4/CapSense_CSHL.c **** 
1693:.\Generated_Source\PSoC4/CapSense_CSHL.c ****         #if(CapSense_TOTAL_RADIAL_SLIDERS_COUNT > 0u)
1694:.\Generated_Source\PSoC4/CapSense_CSHL.c ****             /* Only required for RADIAL Slider */
1695:.\Generated_Source\PSoC4/CapSense_CSHL.c ****             if(denominator < 0)
1696:.\Generated_Source\PSoC4/CapSense_CSHL.c ****             {
1697:.\Generated_Source\PSoC4/CapSense_CSHL.c ****                 denominator += (int32)((uint16)((uint16) count << 8u));
1698:.\Generated_Source\PSoC4/CapSense_CSHL.c ****             }
1699:.\Generated_Source\PSoC4/CapSense_CSHL.c ****         #endif /* (CapSense_TOTAL_RADIAL_SLIDERS_COUNT > 0u) */
1700:.\Generated_Source\PSoC4/CapSense_CSHL.c ****         
1701:.\Generated_Source\PSoC4/CapSense_CSHL.c ****         denominator *= (int16)resolution;
 2193              		.loc 1 1701 0
 2194 0162 BB1C     		add	r3, r7, #2
 2195 0164 1B88     		ldrh	r3, [r3]
 2196 0166 1AB2     		sxth	r2, r3
 2197 0168 FB68     		ldr	r3, [r7, #12]
 2198 016a 5343     		mul	r3, r2
 2199 016c FB60     		str	r3, [r7, #12]
1702:.\Generated_Source\PSoC4/CapSense_CSHL.c ****         
1703:.\Generated_Source\PSoC4/CapSense_CSHL.c ****         /* Round result and put it to uint8 */
1704:.\Generated_Source\PSoC4/CapSense_CSHL.c ****         position = ((uint8) HI16((uint32)denominator + CapSense_CENTROID_ROUND_VALUE));
 2200              		.loc 1 1704 0
 2201 016e FB68     		ldr	r3, [r7, #12]
 2202 0170 FE22     		mov	r2, #254
 2203 0172 D201     		lsl	r2, r2, #7
 2204 0174 9B18     		add	r3, r3, r2
 2205 0176 1A0C     		lsr	r2, r3, #16
ARM GAS  C:\Users\IEUser\AppData\Local\Temp\cctak5Pf.s 			page 70


 2206 0178 3B1C     		mov	r3, r7
 2207 017a 0B33     		add	r3, r3, #11
 2208 017c 1A70     		strb	r2, [r3]
1705:.\Generated_Source\PSoC4/CapSense_CSHL.c **** 
1706:.\Generated_Source\PSoC4/CapSense_CSHL.c ****         return (position);
 2209              		.loc 1 1706 0
 2210 017e 3B1C     		mov	r3, r7
 2211 0180 0B33     		add	r3, r3, #11
 2212 0182 1B78     		ldrb	r3, [r3]
1707:.\Generated_Source\PSoC4/CapSense_CSHL.c ****     }    
 2213              		.loc 1 1707 0
 2214 0184 181C     		mov	r0, r3
 2215 0186 BD46     		mov	sp, r7
 2216 0188 09B0     		add	sp, sp, #36
 2217              		@ sp needed
 2218 018a 90BD     		pop	{r4, r7, pc}
 2219              	.L138:
 2220              		.align	2
 2221              	.L137:
 2222 018c 00000000 		.word	CapSense_sensorSignal
 2223 0190 24000000 		.word	CapSense_centroid.5406
 2224              		.cfi_endproc
 2225              	.LFE61:
 2226              		.size	CapSense_CalcCentroid, .-CapSense_CalcCentroid
 2227              		.section	.text.CapSense_GetCentroidPos,"ax",%progbits
 2228              		.align	2
 2229              		.global	CapSense_GetCentroidPos
 2230              		.code	16
 2231              		.thumb_func
 2232              		.type	CapSense_GetCentroidPos, %function
 2233              	CapSense_GetCentroidPos:
 2234              	.LFB62:
1708:.\Generated_Source\PSoC4/CapSense_CSHL.c **** #endif /* (CapSense_TOTAL_CENTROIDS_BASIC_COUNT) */
1709:.\Generated_Source\PSoC4/CapSense_CSHL.c **** 
1710:.\Generated_Source\PSoC4/CapSense_CSHL.c **** 
1711:.\Generated_Source\PSoC4/CapSense_CSHL.c **** #if((CapSense_TOTAL_RADIAL_SLIDERS_COUNT > 0u) || (CapSense_TOTAL_LINEAR_SLIDERS_COUNT > 0u))
1712:.\Generated_Source\PSoC4/CapSense_CSHL.c ****     /*******************************************************************************
1713:.\Generated_Source\PSoC4/CapSense_CSHL.c ****     * Function Name: CapSense_GetCentroidPos
1714:.\Generated_Source\PSoC4/CapSense_CSHL.c ****     ********************************************************************************
1715:.\Generated_Source\PSoC4/CapSense_CSHL.c ****     *
1716:.\Generated_Source\PSoC4/CapSense_CSHL.c ****     * Summary:
1717:.\Generated_Source\PSoC4/CapSense_CSHL.c ****     *  Checks the CapSense_Signal[ ] array for a centroid within
1718:.\Generated_Source\PSoC4/CapSense_CSHL.c ****     *  a slider specified range. The centroid position is calculated according to the resolution
1719:.\Generated_Source\PSoC4/CapSense_CSHL.c ****     *  specified in the CapSense customizer. The position filters are applied to the
1720:.\Generated_Source\PSoC4/CapSense_CSHL.c ****     *  result if enabled.
1721:.\Generated_Source\PSoC4/CapSense_CSHL.c ****     *
1722:.\Generated_Source\PSoC4/CapSense_CSHL.c ****     * Parameters:
1723:.\Generated_Source\PSoC4/CapSense_CSHL.c ****     *  widget:  Widget number.
1724:.\Generated_Source\PSoC4/CapSense_CSHL.c ****     *  For every linear slider widget there are defines in this format:
1725:.\Generated_Source\PSoC4/CapSense_CSHL.c ****     *  #define CapSense_"widget_name"__LS           5
1726:.\Generated_Source\PSoC4/CapSense_CSHL.c ****     * 
1727:.\Generated_Source\PSoC4/CapSense_CSHL.c ****     * Return:
1728:.\Generated_Source\PSoC4/CapSense_CSHL.c ****     *  Returns a position value of the linear slider.
1729:.\Generated_Source\PSoC4/CapSense_CSHL.c **** 	*
1730:.\Generated_Source\PSoC4/CapSense_CSHL.c **** 	* Global Variables:
1731:.\Generated_Source\PSoC4/CapSense_CSHL.c **** 	*  None
1732:.\Generated_Source\PSoC4/CapSense_CSHL.c **** 	*
ARM GAS  C:\Users\IEUser\AppData\Local\Temp\cctak5Pf.s 			page 71


1733:.\Generated_Source\PSoC4/CapSense_CSHL.c ****     * Side Effects:
1734:.\Generated_Source\PSoC4/CapSense_CSHL.c ****     *  If any sensor within the slider widget is active, the function returns values
1735:.\Generated_Source\PSoC4/CapSense_CSHL.c ****     *  from zero to the API resolution value set in the CapSense customizer. If no
1736:.\Generated_Source\PSoC4/CapSense_CSHL.c ****     *  sensors are active, the function returns 0xFFFF. If an error occurs during
1737:.\Generated_Source\PSoC4/CapSense_CSHL.c ****     *  execution of the centroid/diplexing algorithm, the function returns 0xFFFF.
1738:.\Generated_Source\PSoC4/CapSense_CSHL.c ****     *  There are no checks of the widget type argument provided to this function.
1739:.\Generated_Source\PSoC4/CapSense_CSHL.c ****     *  The unproper widget type provided will cause unexpected position calculations.
1740:.\Generated_Source\PSoC4/CapSense_CSHL.c ****     *
1741:.\Generated_Source\PSoC4/CapSense_CSHL.c ****     * Note:
1742:.\Generated_Source\PSoC4/CapSense_CSHL.c ****     *  If noise counts on the slider segments are greater than the noise
1743:.\Generated_Source\PSoC4/CapSense_CSHL.c ****     *  threshold, this subroutine may generate a false centroid result. The noise
1744:.\Generated_Source\PSoC4/CapSense_CSHL.c ****     *  threshold should be set carefully (high enough above the noise level) so
1745:.\Generated_Source\PSoC4/CapSense_CSHL.c ****     *  that noise will not generate a false centroid.
1746:.\Generated_Source\PSoC4/CapSense_CSHL.c ****     *******************************************************************************/
1747:.\Generated_Source\PSoC4/CapSense_CSHL.c ****     uint16 CapSense_GetCentroidPos(uint32 widget)
1748:.\Generated_Source\PSoC4/CapSense_CSHL.c ****     {
 2235              		.loc 1 1748 0
 2236              		.cfi_startproc
 2237 0000 90B5     		push	{r4, r7, lr}
 2238              		.cfi_def_cfa_offset 12
 2239              		.cfi_offset 4, -12
 2240              		.cfi_offset 7, -8
 2241              		.cfi_offset 14, -4
 2242 0002 87B0     		sub	sp, sp, #28
 2243              		.cfi_def_cfa_offset 40
 2244 0004 02AF     		add	r7, sp, #8
 2245              		.cfi_def_cfa 7, 32
 2246 0006 7860     		str	r0, [r7, #4]
1749:.\Generated_Source\PSoC4/CapSense_CSHL.c ****         #if (CapSense_IS_DIPLEX_SLIDER)
1750:.\Generated_Source\PSoC4/CapSense_CSHL.c ****             const uint8 *diplex;
1751:.\Generated_Source\PSoC4/CapSense_CSHL.c ****         #endif /* (CapSense_IS_DIPLEX_SLIDER) */
1752:.\Generated_Source\PSoC4/CapSense_CSHL.c ****                 
1753:.\Generated_Source\PSoC4/CapSense_CSHL.c ****         #if (0u != CapSense_LINEAR_SLIDERS_POS_FILTERS_MASK)
1754:.\Generated_Source\PSoC4/CapSense_CSHL.c ****             uint8 posIndex;
1755:.\Generated_Source\PSoC4/CapSense_CSHL.c ****             uint8 firstTimeIndex = CapSense_posFiltersData[widget];
 2247              		.loc 1 1755 0
 2248 0008 3B1C     		mov	r3, r7
 2249 000a 0D33     		add	r3, r3, #13
 2250 000c 4F49     		ldr	r1, .L145
 2251 000e 7A68     		ldr	r2, [r7, #4]
 2252 0010 8A18     		add	r2, r1, r2
 2253 0012 1278     		ldrb	r2, [r2]
 2254 0014 1A70     		strb	r2, [r3]
1756:.\Generated_Source\PSoC4/CapSense_CSHL.c ****             uint8 posFiltersMask = CapSense_posFiltersMask[widget];  
 2255              		.loc 1 1756 0
 2256 0016 3B1C     		mov	r3, r7
 2257 0018 0C33     		add	r3, r3, #12
 2258 001a 4D49     		ldr	r1, .L145+4
 2259 001c 7A68     		ldr	r2, [r7, #4]
 2260 001e 8A18     		add	r2, r1, r2
 2261 0020 1278     		ldrb	r2, [r2]
 2262 0022 1A70     		strb	r2, [r3]
1757:.\Generated_Source\PSoC4/CapSense_CSHL.c ****         #endif /* (0u != CapSense_LINEAR_SLIDERS_POS_FILTERS_MASK) */
1758:.\Generated_Source\PSoC4/CapSense_CSHL.c **** 
1759:.\Generated_Source\PSoC4/CapSense_CSHL.c ****         #if ((0u != (CapSense_MEDIAN_FILTER & CapSense_LINEAR_SLIDERS_POS_FILTERS_MASK)) || \
1760:.\Generated_Source\PSoC4/CapSense_CSHL.c ****              (0u != (CapSense_AVERAGING_FILTER & CapSense_LINEAR_SLIDERS_POS_FILTERS_MASK)))
1761:.\Generated_Source\PSoC4/CapSense_CSHL.c ****             uint8 tempPos;
ARM GAS  C:\Users\IEUser\AppData\Local\Temp\cctak5Pf.s 			page 72


1762:.\Generated_Source\PSoC4/CapSense_CSHL.c ****         #endif /* ((0u != (CapSense_MEDIAN_FILTER & CapSense_LINEAR_SLIDERS_POS_FILTERS_MASK)) || \
1763:.\Generated_Source\PSoC4/CapSense_CSHL.c ****                *   (0u != (CapSense_AVERAGING_FILTER & CapSense_LINEAR_SLIDERS_POS_FILTERS_MASK)))
1764:.\Generated_Source\PSoC4/CapSense_CSHL.c ****                */
1765:.\Generated_Source\PSoC4/CapSense_CSHL.c **** 
1766:.\Generated_Source\PSoC4/CapSense_CSHL.c ****         uint8 maximum;
1767:.\Generated_Source\PSoC4/CapSense_CSHL.c ****         uint16 position;
1768:.\Generated_Source\PSoC4/CapSense_CSHL.c ****         uint8 offset = CapSense_rawDataIndex[widget];
 2263              		.loc 1 1768 0
 2264 0024 3B1C     		mov	r3, r7
 2265 0026 0B33     		add	r3, r3, #11
 2266 0028 0022     		mov	r2, #0
 2267 002a 1A70     		strb	r2, [r3]
1769:.\Generated_Source\PSoC4/CapSense_CSHL.c ****         uint8 count = CapSense_numberOfSensors[widget];
 2268              		.loc 1 1769 0
 2269 002c 3B1C     		mov	r3, r7
 2270 002e 0A33     		add	r3, r3, #10
 2271 0030 0522     		mov	r2, #5
 2272 0032 1A70     		strb	r2, [r3]
1770:.\Generated_Source\PSoC4/CapSense_CSHL.c ****                         
1771:.\Generated_Source\PSoC4/CapSense_CSHL.c ****         #if (CapSense_IS_DIPLEX_SLIDER)
1772:.\Generated_Source\PSoC4/CapSense_CSHL.c ****             if(widget < CapSense_TOTAL_DIPLEXED_SLIDERS_COUNT)
1773:.\Generated_Source\PSoC4/CapSense_CSHL.c ****             {
1774:.\Generated_Source\PSoC4/CapSense_CSHL.c ****                 maximum = CapSense_diplexTable[widget];
1775:.\Generated_Source\PSoC4/CapSense_CSHL.c ****                 diplex = &CapSense_diplexTable[maximum];
1776:.\Generated_Source\PSoC4/CapSense_CSHL.c ****             }
1777:.\Generated_Source\PSoC4/CapSense_CSHL.c ****             else
1778:.\Generated_Source\PSoC4/CapSense_CSHL.c ****             {
1779:.\Generated_Source\PSoC4/CapSense_CSHL.c ****                 diplex = 0u;
1780:.\Generated_Source\PSoC4/CapSense_CSHL.c ****             }
1781:.\Generated_Source\PSoC4/CapSense_CSHL.c ****         #endif /* (CapSense_IS_DIPLEX_SLIDER) */
1782:.\Generated_Source\PSoC4/CapSense_CSHL.c **** 
1783:.\Generated_Source\PSoC4/CapSense_CSHL.c **** 		/* Find Maximum within centroid */      
1784:.\Generated_Source\PSoC4/CapSense_CSHL.c **** 		#if (CapSense_IS_DIPLEX_SLIDER)        
1785:.\Generated_Source\PSoC4/CapSense_CSHL.c **** 			maximum = CapSense_FindMaximum(offset, count, (uint8)CapSense_fingerThreshold[widget], diplex);
1786:.\Generated_Source\PSoC4/CapSense_CSHL.c **** 		#else
1787:.\Generated_Source\PSoC4/CapSense_CSHL.c **** 			maximum = CapSense_FindMaximum(offset, count, (uint8)CapSense_fingerThreshold[widget]);
 2273              		.loc 1 1787 0
 2274 0034 474A     		ldr	r2, .L145+8
 2275 0036 7B68     		ldr	r3, [r7, #4]
 2276 0038 D318     		add	r3, r2, r3
 2277 003a 1B78     		ldrb	r3, [r3]
 2278 003c 3C1C     		mov	r4, r7
 2279 003e 0934     		add	r4, r4, #9
 2280 0040 3A1C     		mov	r2, r7
 2281 0042 0B32     		add	r2, r2, #11
 2282 0044 1178     		ldrb	r1, [r2]
 2283 0046 3A1C     		mov	r2, r7
 2284 0048 0A32     		add	r2, r2, #10
 2285 004a 1278     		ldrb	r2, [r2]
 2286 004c 081C     		mov	r0, r1
 2287 004e 111C     		mov	r1, r2
 2288 0050 1A1C     		mov	r2, r3
 2289 0052 FFF7FEFF 		bl	CapSense_FindMaximum
 2290 0056 031C     		mov	r3, r0
 2291 0058 2370     		strb	r3, [r4]
1788:.\Generated_Source\PSoC4/CapSense_CSHL.c **** 		#endif /* (CapSense_IS_DIPLEX_SLIDER) */
1789:.\Generated_Source\PSoC4/CapSense_CSHL.c **** 
ARM GAS  C:\Users\IEUser\AppData\Local\Temp\cctak5Pf.s 			page 73


1790:.\Generated_Source\PSoC4/CapSense_CSHL.c ****         if (maximum != 0xFFu)
 2292              		.loc 1 1790 0
 2293 005a 3B1C     		mov	r3, r7
 2294 005c 0933     		add	r3, r3, #9
 2295 005e 1B78     		ldrb	r3, [r3]
 2296 0060 FF2B     		cmp	r3, #255
 2297 0062 5AD0     		beq	.L140
1791:.\Generated_Source\PSoC4/CapSense_CSHL.c ****         {
1792:.\Generated_Source\PSoC4/CapSense_CSHL.c ****             /* Calculate centroid */
1793:.\Generated_Source\PSoC4/CapSense_CSHL.c ****             position = (uint16) CapSense_CalcCentroid(maximum, 
 2298              		.loc 1 1793 0
 2299 0064 FE23     		mov	r3, #254
 2300 0066 5B01     		lsl	r3, r3, #5
 2301 0068 3B49     		ldr	r1, .L145+12
 2302 006a 7A68     		ldr	r2, [r7, #4]
 2303 006c 8A18     		add	r2, r1, r2
 2304 006e 1478     		ldrb	r4, [r2]
 2305 0070 3A1C     		mov	r2, r7
 2306 0072 0932     		add	r2, r2, #9
 2307 0074 1078     		ldrb	r0, [r2]
 2308 0076 3A1C     		mov	r2, r7
 2309 0078 0B32     		add	r2, r2, #11
 2310 007a 1178     		ldrb	r1, [r2]
 2311 007c 3A1C     		mov	r2, r7
 2312 007e 0A32     		add	r2, r2, #10
 2313 0080 1278     		ldrb	r2, [r2]
 2314 0082 0094     		str	r4, [sp]
 2315 0084 FFF7FEFF 		bl	CapSense_CalcCentroid
 2316 0088 031C     		mov	r3, r0
 2317 008a 1A1C     		mov	r2, r3
 2318 008c 3B1C     		mov	r3, r7
 2319 008e 0E33     		add	r3, r3, #14
 2320 0090 1A80     		strh	r2, [r3]
1794:.\Generated_Source\PSoC4/CapSense_CSHL.c ****                          offset, count, CapSense_centroidMult[widget], CapSense_noiseThreshold[widg
1795:.\Generated_Source\PSoC4/CapSense_CSHL.c **** 
1796:.\Generated_Source\PSoC4/CapSense_CSHL.c ****             #if (0u != CapSense_LINEAR_SLIDERS_POS_FILTERS_MASK)
1797:.\Generated_Source\PSoC4/CapSense_CSHL.c ****                 /* Check if this linear slider has enabled filters */
1798:.\Generated_Source\PSoC4/CapSense_CSHL.c ****                 if (0u != (posFiltersMask & CapSense_ANY_POS_FILTER))
 2321              		.loc 1 1798 0
 2322 0092 3B1C     		mov	r3, r7
 2323 0094 0C33     		add	r3, r3, #12
 2324 0096 1A78     		ldrb	r2, [r3]
 2325 0098 1F23     		mov	r3, #31
 2326 009a 1340     		and	r3, r2
 2327 009c 4ED0     		beq	.L143
1799:.\Generated_Source\PSoC4/CapSense_CSHL.c ****                 {
1800:.\Generated_Source\PSoC4/CapSense_CSHL.c ****                     /* Calculate position to store filters data */
1801:.\Generated_Source\PSoC4/CapSense_CSHL.c ****                     posIndex  = firstTimeIndex + 1u;
 2328              		.loc 1 1801 0
 2329 009e 3B1C     		mov	r3, r7
