ARM GAS  C:\Users\IEUser\AppData\Local\Temp\cchFFizP.s 			page 1


   1              		.cpu cortex-m0
   2              		.fpu softvfp
   3              		.eabi_attribute 20, 1
   4              		.eabi_attribute 21, 1
   5              		.eabi_attribute 23, 3
   6              		.eabi_attribute 24, 1
   7              		.eabi_attribute 25, 1
   8              		.eabi_attribute 26, 1
   9              		.eabi_attribute 30, 6
  10              		.eabi_attribute 34, 0
  11              		.eabi_attribute 18, 4
  12              		.code	16
  13              		.file	"CyFlash.c"
  14              		.text
  15              	.Ltext0:
  16              		.cfi_sections	.debug_frame
  17              		.section	.text.CySysFlashSetupClock,"ax",%progbits
  18              		.align	2
  19              		.code	16
  20              		.thumb_func
  21              		.type	CySysFlashSetupClock, %function
  22              	CySysFlashSetupClock:
  23              	.LFB0:
  24              		.file 1 ".\\Generated_Source\\PSoC4\\CyFlash.c"
   1:.\Generated_Source\PSoC4/CyFlash.c **** /*******************************************************************************
   2:.\Generated_Source\PSoC4/CyFlash.c **** * File Name: CyFlash.c
   3:.\Generated_Source\PSoC4/CyFlash.c **** * Version 4.11
   4:.\Generated_Source\PSoC4/CyFlash.c **** *
   5:.\Generated_Source\PSoC4/CyFlash.c **** *  Description:
   6:.\Generated_Source\PSoC4/CyFlash.c **** *   Provides an API for the FLASH.
   7:.\Generated_Source\PSoC4/CyFlash.c **** *
   8:.\Generated_Source\PSoC4/CyFlash.c **** *  Note:
   9:.\Generated_Source\PSoC4/CyFlash.c **** *   Documentation of the API's in this file is located in the
  10:.\Generated_Source\PSoC4/CyFlash.c **** *   System Reference Guide provided with PSoC Creator.
  11:.\Generated_Source\PSoC4/CyFlash.c **** *
  12:.\Generated_Source\PSoC4/CyFlash.c **** ********************************************************************************
  13:.\Generated_Source\PSoC4/CyFlash.c **** * Copyright 2010-2014, Cypress Semiconductor Corporation. All rights reserved.
  14:.\Generated_Source\PSoC4/CyFlash.c **** * You may use this file only in accordance with the license, terms, conditions,
  15:.\Generated_Source\PSoC4/CyFlash.c **** * disclaimers, and limitations in the end user license agreement accompanying
  16:.\Generated_Source\PSoC4/CyFlash.c **** * the software package with which this file was provided.
  17:.\Generated_Source\PSoC4/CyFlash.c **** *******************************************************************************/
  18:.\Generated_Source\PSoC4/CyFlash.c **** 
  19:.\Generated_Source\PSoC4/CyFlash.c **** #include "CyFlash.h"
  20:.\Generated_Source\PSoC4/CyFlash.c **** #include "cyPm.h"
  21:.\Generated_Source\PSoC4/CyFlash.c **** 
  22:.\Generated_Source\PSoC4/CyFlash.c **** #if ((CYDEV_CHIP_MEMBER_USED == CYDEV_CHIP_MEMBER_4A) || (CYDEV_CHIP_MEMBER_USED == CYDEV_CHIP_MEMB
  23:.\Generated_Source\PSoC4/CyFlash.c ****     #define CYFLASH_CHECKSUM_WORKAROUND     1u
  24:.\Generated_Source\PSoC4/CyFlash.c **** #endif  /* ((CYDEV_CHIP_MEMBER_USED == CYDEV_CHIP_MEMBER_4A) || (CYDEV_CHIP_MEMBER_USED == CYDEV_CH
  25:.\Generated_Source\PSoC4/CyFlash.c **** 
  26:.\Generated_Source\PSoC4/CyFlash.c **** 
  27:.\Generated_Source\PSoC4/CyFlash.c **** #if (CY_PSOC4A)
  28:.\Generated_Source\PSoC4/CyFlash.c **** 
  29:.\Generated_Source\PSoC4/CyFlash.c ****     struct CySysFlashClockState
  30:.\Generated_Source\PSoC4/CyFlash.c ****     {
  31:.\Generated_Source\PSoC4/CyFlash.c ****         uint32   imoConfigReg;
  32:.\Generated_Source\PSoC4/CyFlash.c ****     };
  33:.\Generated_Source\PSoC4/CyFlash.c **** 
ARM GAS  C:\Users\IEUser\AppData\Local\Temp\cchFFizP.s 			page 2


  34:.\Generated_Source\PSoC4/CyFlash.c **** #else
  35:.\Generated_Source\PSoC4/CyFlash.c **** 
  36:.\Generated_Source\PSoC4/CyFlash.c ****     struct CySysFlashClockState
  37:.\Generated_Source\PSoC4/CyFlash.c ****     {
  38:.\Generated_Source\PSoC4/CyFlash.c ****         uint32 clkSelectReg;
  39:.\Generated_Source\PSoC4/CyFlash.c ****         uint32 clkImoEna;
  40:.\Generated_Source\PSoC4/CyFlash.c ****         uint32 clkImoFreq;
  41:.\Generated_Source\PSoC4/CyFlash.c ****     };
  42:.\Generated_Source\PSoC4/CyFlash.c **** 
  43:.\Generated_Source\PSoC4/CyFlash.c **** #endif  /* (CY_PSOC4A) */
  44:.\Generated_Source\PSoC4/CyFlash.c **** 
  45:.\Generated_Source\PSoC4/CyFlash.c **** 
  46:.\Generated_Source\PSoC4/CyFlash.c **** static uint32 CySysFlashExecSysCall(uint32 cmd, volatile const void *arg);
  47:.\Generated_Source\PSoC4/CyFlash.c **** static uint32 CySysFlashCallProgramRow(uint32 rowNum, uint32 operation);
  48:.\Generated_Source\PSoC4/CyFlash.c **** static uint32 CySysFlashHandleLoadResult(void);
  49:.\Generated_Source\PSoC4/CyFlash.c **** #if (CY_PSOC4A)
  50:.\Generated_Source\PSoC4/CyFlash.c ****     static void CySysFlashSetupClock(struct CySysFlashClockState *saved);
  51:.\Generated_Source\PSoC4/CyFlash.c ****     static void CySysFlashRestoreClock(const struct CySysFlashClockState *saved);
  52:.\Generated_Source\PSoC4/CyFlash.c **** #else
  53:.\Generated_Source\PSoC4/CyFlash.c ****     static void CySysFlashSetupClock(struct CySysFlashClockState *saved);
  54:.\Generated_Source\PSoC4/CyFlash.c ****     static void CySysFlashRestoreClock(const struct CySysFlashClockState *saved);
  55:.\Generated_Source\PSoC4/CyFlash.c **** #endif  /* (CY_PSOC4A) */
  56:.\Generated_Source\PSoC4/CyFlash.c **** 
  57:.\Generated_Source\PSoC4/CyFlash.c **** 
  58:.\Generated_Source\PSoC4/CyFlash.c **** #if (CY_PSOC4A)
  59:.\Generated_Source\PSoC4/CyFlash.c **** 
  60:.\Generated_Source\PSoC4/CyFlash.c ****     /*******************************************************************************
  61:.\Generated_Source\PSoC4/CyFlash.c ****     * Function Name: CySysFlashSetupClock
  62:.\Generated_Source\PSoC4/CyFlash.c ****     ********************************************************************************
  63:.\Generated_Source\PSoC4/CyFlash.c ****     *
  64:.\Generated_Source\PSoC4/CyFlash.c ****     * Summary:
  65:.\Generated_Source\PSoC4/CyFlash.c ****     *  Configures the device clock settings for the flash write.
  66:.\Generated_Source\PSoC4/CyFlash.c ****     *
  67:.\Generated_Source\PSoC4/CyFlash.c ****     * Parameters:
  68:.\Generated_Source\PSoC4/CyFlash.c ****     *  saved:
  69:.\Generated_Source\PSoC4/CyFlash.c ****     *   Pointer to the structure where the data are saved.
  70:.\Generated_Source\PSoC4/CyFlash.c ****     *
  71:.\Generated_Source\PSoC4/CyFlash.c ****     * Return:
  72:.\Generated_Source\PSoC4/CyFlash.c ****     *  None
  73:.\Generated_Source\PSoC4/CyFlash.c ****     *
  74:.\Generated_Source\PSoC4/CyFlash.c ****     *******************************************************************************/
  75:.\Generated_Source\PSoC4/CyFlash.c ****     static void CySysFlashSetupClock(struct CySysFlashClockState *saved)
  76:.\Generated_Source\PSoC4/CyFlash.c ****     {
  25              		.loc 1 76 0
  26              		.cfi_startproc
  27 0000 80B5     		push	{r7, lr}
  28              		.cfi_def_cfa_offset 8
  29              		.cfi_offset 7, -8
  30              		.cfi_offset 14, -4
  31 0002 82B0     		sub	sp, sp, #8
  32              		.cfi_def_cfa_offset 16
  33 0004 00AF     		add	r7, sp, #0
  34              		.cfi_def_cfa_register 7
  35 0006 7860     		str	r0, [r7, #4]
  77:.\Generated_Source\PSoC4/CyFlash.c ****         /* Preserve IMO configuration that could be changed
  78:.\Generated_Source\PSoC4/CyFlash.c ****         * during syscall execution (Cypress ID #150448).
  79:.\Generated_Source\PSoC4/CyFlash.c ****         */
ARM GAS  C:\Users\IEUser\AppData\Local\Temp\cchFFizP.s 			page 3


  80:.\Generated_Source\PSoC4/CyFlash.c ****         saved->imoConfigReg = CY_SYS_CLK_IMO_CONFIG_REG;
  36              		.loc 1 80 0
  37 0008 034B     		ldr	r3, .L2
  38 000a 1A68     		ldr	r2, [r3]
  39 000c 7B68     		ldr	r3, [r7, #4]
  40 000e 1A60     		str	r2, [r3]
  81:.\Generated_Source\PSoC4/CyFlash.c ****     }
  41              		.loc 1 81 0
  42 0010 BD46     		mov	sp, r7
  43 0012 02B0     		add	sp, sp, #8
  44              		@ sp needed
  45 0014 80BD     		pop	{r7, pc}
  46              	.L3:
  47 0016 C046     		.align	2
  48              	.L2:
  49 0018 08010B40 		.word	1074462984
  50              		.cfi_endproc
  51              	.LFE0:
  52              		.size	CySysFlashSetupClock, .-CySysFlashSetupClock
  53              		.section	.text.CySysFlashRestoreClock,"ax",%progbits
  54              		.align	2
  55              		.code	16
  56              		.thumb_func
  57              		.type	CySysFlashRestoreClock, %function
  58              	CySysFlashRestoreClock:
  59              	.LFB1:
  82:.\Generated_Source\PSoC4/CyFlash.c **** 
  83:.\Generated_Source\PSoC4/CyFlash.c **** 
  84:.\Generated_Source\PSoC4/CyFlash.c ****     /*******************************************************************************
  85:.\Generated_Source\PSoC4/CyFlash.c ****     * Function Name: CySysFlashRestoreClock
  86:.\Generated_Source\PSoC4/CyFlash.c ****     ********************************************************************************
  87:.\Generated_Source\PSoC4/CyFlash.c ****     *
  88:.\Generated_Source\PSoC4/CyFlash.c ****     * Summary:
  89:.\Generated_Source\PSoC4/CyFlash.c ****     *  Restores the device clock settings.
  90:.\Generated_Source\PSoC4/CyFlash.c ****     *
  91:.\Generated_Source\PSoC4/CyFlash.c ****     * Parameters:
  92:.\Generated_Source\PSoC4/CyFlash.c ****     *  saved:
  93:.\Generated_Source\PSoC4/CyFlash.c ****     *   Pointer to the structure from where the data are saved.
  94:.\Generated_Source\PSoC4/CyFlash.c ****     *
  95:.\Generated_Source\PSoC4/CyFlash.c ****     * Return:
  96:.\Generated_Source\PSoC4/CyFlash.c ****     *  None
  97:.\Generated_Source\PSoC4/CyFlash.c ****     *
  98:.\Generated_Source\PSoC4/CyFlash.c ****     *******************************************************************************/
  99:.\Generated_Source\PSoC4/CyFlash.c ****     static void CySysFlashRestoreClock(const struct CySysFlashClockState *saved)
 100:.\Generated_Source\PSoC4/CyFlash.c ****     {
  60              		.loc 1 100 0
  61              		.cfi_startproc
  62 0000 80B5     		push	{r7, lr}
  63              		.cfi_def_cfa_offset 8
  64              		.cfi_offset 7, -8
  65              		.cfi_offset 14, -4
  66 0002 82B0     		sub	sp, sp, #8
  67              		.cfi_def_cfa_offset 16
  68 0004 00AF     		add	r7, sp, #0
  69              		.cfi_def_cfa_register 7
  70 0006 7860     		str	r0, [r7, #4]
 101:.\Generated_Source\PSoC4/CyFlash.c ****         CY_SYS_CLK_IMO_CONFIG_REG = saved->imoConfigReg;
ARM GAS  C:\Users\IEUser\AppData\Local\Temp\cchFFizP.s 			page 4


  71              		.loc 1 101 0
  72 0008 034B     		ldr	r3, .L5
  73 000a 7A68     		ldr	r2, [r7, #4]
  74 000c 1268     		ldr	r2, [r2]
  75 000e 1A60     		str	r2, [r3]
 102:.\Generated_Source\PSoC4/CyFlash.c ****     }
  76              		.loc 1 102 0
  77 0010 BD46     		mov	sp, r7
  78 0012 02B0     		add	sp, sp, #8
  79              		@ sp needed
  80 0014 80BD     		pop	{r7, pc}
  81              	.L6:
  82 0016 C046     		.align	2
  83              	.L5:
  84 0018 08010B40 		.word	1074462984
  85              		.cfi_endproc
  86              	.LFE1:
  87              		.size	CySysFlashRestoreClock, .-CySysFlashRestoreClock
  88              		.section	.text.CySysFlashExecSysCall,"ax",%progbits
  89              		.align	2
  90              		.code	16
  91              		.thumb_func
  92              		.type	CySysFlashExecSysCall, %function
  93              	CySysFlashExecSysCall:
  94              	.LFB2:
 103:.\Generated_Source\PSoC4/CyFlash.c **** 
 104:.\Generated_Source\PSoC4/CyFlash.c **** #else
 105:.\Generated_Source\PSoC4/CyFlash.c **** 
 106:.\Generated_Source\PSoC4/CyFlash.c ****     /*******************************************************************************
 107:.\Generated_Source\PSoC4/CyFlash.c ****     * Function Name: CySysFlashSetupClock
 108:.\Generated_Source\PSoC4/CyFlash.c ****     ********************************************************************************
 109:.\Generated_Source\PSoC4/CyFlash.c ****     *
 110:.\Generated_Source\PSoC4/CyFlash.c ****     * Summary:
 111:.\Generated_Source\PSoC4/CyFlash.c ****     *  Configures the device clock settings for the flash write.
 112:.\Generated_Source\PSoC4/CyFlash.c ****     *
 113:.\Generated_Source\PSoC4/CyFlash.c ****     * Parameters:
 114:.\Generated_Source\PSoC4/CyFlash.c ****     *  saved:
 115:.\Generated_Source\PSoC4/CyFlash.c ****     *   Pointer to the structure where the data are saved.
 116:.\Generated_Source\PSoC4/CyFlash.c ****     *
 117:.\Generated_Source\PSoC4/CyFlash.c ****     * Return:
 118:.\Generated_Source\PSoC4/CyFlash.c ****     *  None
 119:.\Generated_Source\PSoC4/CyFlash.c ****     *
 120:.\Generated_Source\PSoC4/CyFlash.c ****     *******************************************************************************/
 121:.\Generated_Source\PSoC4/CyFlash.c ****     static void CySysFlashSetupClock(struct CySysFlashClockState *saved)
 122:.\Generated_Source\PSoC4/CyFlash.c ****     {
 123:.\Generated_Source\PSoC4/CyFlash.c ****         saved->clkSelectReg = CY_SYS_CLK_SELECT_REG;
 124:.\Generated_Source\PSoC4/CyFlash.c ****         saved->clkImoEna    = CY_SYS_CLK_IMO_CONFIG_REG & CY_SYS_CLK_IMO_CONFIG_ENABLE;
 125:.\Generated_Source\PSoC4/CyFlash.c ****         saved->clkImoFreq   = CY_SYS_CLK_IMO_MIN_FREQ_MHZ + (CY_SYS_CLK_IMO_SELECT_REG << 2);
 126:.\Generated_Source\PSoC4/CyFlash.c **** 
 127:.\Generated_Source\PSoC4/CyFlash.c ****         /* The FM-Lite IP (s8fmlt) uses the IMO at 48MHz for the pump clock and SPC
 128:.\Generated_Source\PSoC4/CyFlash.c ****          * timer clock. The PUMP_SEL and HF clock must be set to IMO before calling
 129:.\Generated_Source\PSoC4/CyFlash.c ****          * Flash write or erase operation.
 130:.\Generated_Source\PSoC4/CyFlash.c ****         */
 131:.\Generated_Source\PSoC4/CyFlash.c ****         if ((saved->clkImoFreq != 48u) ||
 132:.\Generated_Source\PSoC4/CyFlash.c ****             ((saved->clkSelectReg & CY_SYS_CLK_SELECT_DIRECT_SEL_MASK) != CY_SYS_CLK_HFCLK_IMO) ||
 133:.\Generated_Source\PSoC4/CyFlash.c ****             (((saved->clkSelectReg >> CY_SYS_CLK_SELECT_PUMP_SEL_SHIFT) & CY_SYS_CLK_SELECT_PUMP_SE
 134:.\Generated_Source\PSoC4/CyFlash.c ****                 CY_SYS_CLK_SELECT_PUMP_SEL_IMO))
ARM GAS  C:\Users\IEUser\AppData\Local\Temp\cchFFizP.s 			page 5


 135:.\Generated_Source\PSoC4/CyFlash.c ****         {
 136:.\Generated_Source\PSoC4/CyFlash.c ****             CySysClkWriteHfclkDiv(CY_SYS_CLK_HFCLK_DIV_4);
 137:.\Generated_Source\PSoC4/CyFlash.c ****             if (saved->clkImoFreq != 48u)
 138:.\Generated_Source\PSoC4/CyFlash.c ****             {
 139:.\Generated_Source\PSoC4/CyFlash.c ****                 CySysClkWriteImoFreq(48u);
 140:.\Generated_Source\PSoC4/CyFlash.c ****             }
 141:.\Generated_Source\PSoC4/CyFlash.c ****             CySysClkImoStart();
 142:.\Generated_Source\PSoC4/CyFlash.c ****             CySysClkWriteHfclkDirect(CY_SYS_CLK_HFCLK_IMO);
 143:.\Generated_Source\PSoC4/CyFlash.c ****             /* Set IMO output as clock source for charge pump clock */
 144:.\Generated_Source\PSoC4/CyFlash.c ****             CY_SYS_CLK_SELECT_REG &=
 145:.\Generated_Source\PSoC4/CyFlash.c ****                 ((uint32)~(uint32)(CY_SYS_CLK_SELECT_PUMP_SEL_MASK << CY_SYS_CLK_SELECT_PUMP_SEL_SH
 146:.\Generated_Source\PSoC4/CyFlash.c ****             CY_SYS_CLK_SELECT_REG |= (uint32)((uint32)1u << CY_SYS_CLK_SELECT_PUMP_SEL_SHIFT);
 147:.\Generated_Source\PSoC4/CyFlash.c ****         }
 148:.\Generated_Source\PSoC4/CyFlash.c ****     }
 149:.\Generated_Source\PSoC4/CyFlash.c **** 
 150:.\Generated_Source\PSoC4/CyFlash.c **** 
 151:.\Generated_Source\PSoC4/CyFlash.c ****     /*******************************************************************************
 152:.\Generated_Source\PSoC4/CyFlash.c ****     * Function Name: CySysFlashRestoreClock
 153:.\Generated_Source\PSoC4/CyFlash.c ****     ********************************************************************************
 154:.\Generated_Source\PSoC4/CyFlash.c ****     *
 155:.\Generated_Source\PSoC4/CyFlash.c ****     * Summary:
 156:.\Generated_Source\PSoC4/CyFlash.c ****     *  Restores the device clock settings.
 157:.\Generated_Source\PSoC4/CyFlash.c ****     *
 158:.\Generated_Source\PSoC4/CyFlash.c ****     * Parameters:
 159:.\Generated_Source\PSoC4/CyFlash.c ****     *  saved:
 160:.\Generated_Source\PSoC4/CyFlash.c ****     *   Pointer to the structure from where the data are saved.
 161:.\Generated_Source\PSoC4/CyFlash.c ****     *
 162:.\Generated_Source\PSoC4/CyFlash.c ****     * Return:
 163:.\Generated_Source\PSoC4/CyFlash.c ****     *  None
 164:.\Generated_Source\PSoC4/CyFlash.c ****     *
 165:.\Generated_Source\PSoC4/CyFlash.c ****     *******************************************************************************/
 166:.\Generated_Source\PSoC4/CyFlash.c ****     static void CySysFlashRestoreClock(const struct CySysFlashClockState *saved)
 167:.\Generated_Source\PSoC4/CyFlash.c ****     {
 168:.\Generated_Source\PSoC4/CyFlash.c ****         if ((saved->clkImoFreq != 48u) ||
 169:.\Generated_Source\PSoC4/CyFlash.c ****             ((saved->clkSelectReg & CY_SYS_CLK_SELECT_DIRECT_SEL_MASK) != CY_SYS_CLK_HFCLK_IMO) ||
 170:.\Generated_Source\PSoC4/CyFlash.c ****             (((saved->clkSelectReg >> CY_SYS_CLK_SELECT_PUMP_SEL_SHIFT) & CY_SYS_CLK_SELECT_PUMP_SE
 171:.\Generated_Source\PSoC4/CyFlash.c ****                 CY_SYS_CLK_SELECT_PUMP_SEL_IMO))
 172:.\Generated_Source\PSoC4/CyFlash.c ****         {
 173:.\Generated_Source\PSoC4/CyFlash.c ****             if (saved->clkImoFreq != 48u)
 174:.\Generated_Source\PSoC4/CyFlash.c ****             {
 175:.\Generated_Source\PSoC4/CyFlash.c ****                 CySysClkWriteImoFreq(saved->clkImoFreq);
 176:.\Generated_Source\PSoC4/CyFlash.c ****             }
 177:.\Generated_Source\PSoC4/CyFlash.c ****             CySysClkWriteHfclkDiv(CY_SYS_CLK_HFCLK_DIV_8);
 178:.\Generated_Source\PSoC4/CyFlash.c ****             CySysClkWriteHfclkDirect(saved->clkSelectReg & CY_SYS_CLK_SELECT_DIRECT_SEL_MASK);
 179:.\Generated_Source\PSoC4/CyFlash.c ****             CY_SYS_CLK_SELECT_REG = saved->clkSelectReg;
 180:.\Generated_Source\PSoC4/CyFlash.c ****             if (0u == saved->clkImoEna)
 181:.\Generated_Source\PSoC4/CyFlash.c ****             {
 182:.\Generated_Source\PSoC4/CyFlash.c ****                 CySysClkImoStop();
 183:.\Generated_Source\PSoC4/CyFlash.c ****             }
 184:.\Generated_Source\PSoC4/CyFlash.c ****         }
 185:.\Generated_Source\PSoC4/CyFlash.c ****     }
 186:.\Generated_Source\PSoC4/CyFlash.c **** 
 187:.\Generated_Source\PSoC4/CyFlash.c **** #endif  /* (CY_PSOC4A) */
 188:.\Generated_Source\PSoC4/CyFlash.c **** 
 189:.\Generated_Source\PSoC4/CyFlash.c **** 
 190:.\Generated_Source\PSoC4/CyFlash.c **** /*******************************************************************************
 191:.\Generated_Source\PSoC4/CyFlash.c **** * Function Name: CySysFlashExecSysCall
ARM GAS  C:\Users\IEUser\AppData\Local\Temp\cchFFizP.s 			page 6


 192:.\Generated_Source\PSoC4/CyFlash.c **** ********************************************************************************
 193:.\Generated_Source\PSoC4/CyFlash.c **** *
 194:.\Generated_Source\PSoC4/CyFlash.c **** * Summary:
 195:.\Generated_Source\PSoC4/CyFlash.c **** *  Executes specified system call command.
 196:.\Generated_Source\PSoC4/CyFlash.c **** *
 197:.\Generated_Source\PSoC4/CyFlash.c **** * Parameters:
 198:.\Generated_Source\PSoC4/CyFlash.c **** *  uint32 cmd:
 199:.\Generated_Source\PSoC4/CyFlash.c **** *   CY_FLASH_SILICON_ID_OPCODE - This returns a 12 bit Family ID, 16 bit
 200:.\Generated_Source\PSoC4/CyFlash.c **** *                                 Silicon ID and 8 bit Revision ID.
 201:.\Generated_Source\PSoC4/CyFlash.c **** *
 202:.\Generated_Source\PSoC4/CyFlash.c **** *   CY_FLASH_LOAD_BYTE_OPCODE  - Loads data to the page latch buffer to be
 203:.\Generated_Source\PSoC4/CyFlash.c **** *                                programmed into the FLASH.
 204:.\Generated_Source\PSoC4/CyFlash.c **** *
 205:.\Generated_Source\PSoC4/CyFlash.c **** *  volatile void *arg:
 206:.\Generated_Source\PSoC4/CyFlash.c **** *   Parameters of the command specified by the cmd parameter.
 207:.\Generated_Source\PSoC4/CyFlash.c **** *
 208:.\Generated_Source\PSoC4/CyFlash.c **** * Return:
 209:.\Generated_Source\PSoC4/CyFlash.c **** *  Result of the system call execution.
 210:.\Generated_Source\PSoC4/CyFlash.c **** *
 211:.\Generated_Source\PSoC4/CyFlash.c **** *******************************************************************************/
 212:.\Generated_Source\PSoC4/CyFlash.c **** static uint32 CySysFlashExecSysCall(uint32 cmd, volatile const void *arg)
 213:.\Generated_Source\PSoC4/CyFlash.c **** {
  95              		.loc 1 213 0
  96              		.cfi_startproc
  97 0000 80B5     		push	{r7, lr}
  98              		.cfi_def_cfa_offset 8
  99              		.cfi_offset 7, -8
 100              		.cfi_offset 14, -4
 101 0002 82B0     		sub	sp, sp, #8
 102              		.cfi_def_cfa_offset 16
 103 0004 00AF     		add	r7, sp, #0
 104              		.cfi_def_cfa_register 7
 105 0006 7860     		str	r0, [r7, #4]
 106 0008 3960     		str	r1, [r7]
 214:.\Generated_Source\PSoC4/CyFlash.c ****     CY_FLASH_CPUSS_SYSARG_REG = (uint32)arg;
 107              		.loc 1 214 0
 108 000a 0A4B     		ldr	r3, .L10
 109 000c 3A68     		ldr	r2, [r7]
 110 000e 1A60     		str	r2, [r3]
 215:.\Generated_Source\PSoC4/CyFlash.c ****     CY_FLASH_CPUSS_SYSREQ_REG = cmd | CY_FLASH_CPUSS_REQ_START;
 111              		.loc 1 215 0
 112 0010 094B     		ldr	r3, .L10+4
 113 0012 7A68     		ldr	r2, [r7, #4]
 114 0014 8021     		mov	r1, #128
 115 0016 0906     		lsl	r1, r1, #24
 116 0018 0A43     		orr	r2, r1
 117 001a 1A60     		str	r2, [r3]
 216:.\Generated_Source\PSoC4/CyFlash.c ****     while ((CY_FLASH_CPUSS_SYSREQ_REG & CY_FLASH_CPUSS_REQ_START) != 0u)
 118              		.loc 1 216 0
 119 001c C046     		mov	r8, r8
 120              	.L8:
 121              		.loc 1 216 0 is_stmt 0 discriminator 1
 122 001e 064B     		ldr	r3, .L10+4
 123 0020 1B68     		ldr	r3, [r3]
 124 0022 002B     		cmp	r3, #0
 125 0024 FBDB     		blt	.L8
 217:.\Generated_Source\PSoC4/CyFlash.c ****     {
ARM GAS  C:\Users\IEUser\AppData\Local\Temp\cchFFizP.s 			page 7


 218:.\Generated_Source\PSoC4/CyFlash.c ****         /* Wait for command to be executed */
 219:.\Generated_Source\PSoC4/CyFlash.c ****     }
 220:.\Generated_Source\PSoC4/CyFlash.c ****     return CY_FLASH_CPUSS_SYSARG_REG;
 126              		.loc 1 220 0 is_stmt 1
 127 0026 034B     		ldr	r3, .L10
 128 0028 1B68     		ldr	r3, [r3]
 221:.\Generated_Source\PSoC4/CyFlash.c **** }
 129              		.loc 1 221 0
 130 002a 181C     		mov	r0, r3
 131 002c BD46     		mov	sp, r7
 132 002e 02B0     		add	sp, sp, #8
 133              		@ sp needed
 134 0030 80BD     		pop	{r7, pc}
 135              	.L11:
 136 0032 C046     		.align	2
 137              	.L10:
 138 0034 08000040 		.word	1073741832
 139 0038 04000040 		.word	1073741828
 140              		.cfi_endproc
 141              	.LFE2:
 142              		.size	CySysFlashExecSysCall, .-CySysFlashExecSysCall
 143              		.section	.text.CySysFlashCallProgramRow,"ax",%progbits
 144              		.align	2
 145              		.code	16
 146              		.thumb_func
 147              		.type	CySysFlashCallProgramRow, %function
 148              	CySysFlashCallProgramRow:
 149              	.LFB3:
 222:.\Generated_Source\PSoC4/CyFlash.c **** 
 223:.\Generated_Source\PSoC4/CyFlash.c **** 
 224:.\Generated_Source\PSoC4/CyFlash.c **** /*******************************************************************************
 225:.\Generated_Source\PSoC4/CyFlash.c **** * Function Name: CySysFlashCallProgramRow
 226:.\Generated_Source\PSoC4/CyFlash.c **** ********************************************************************************
 227:.\Generated_Source\PSoC4/CyFlash.c **** *
 228:.\Generated_Source\PSoC4/CyFlash.c **** * Summary:
 229:.\Generated_Source\PSoC4/CyFlash.c **** *  Executes the Program Row command.
 230:.\Generated_Source\PSoC4/CyFlash.c **** *
 231:.\Generated_Source\PSoC4/CyFlash.c **** * Parameters:
 232:.\Generated_Source\PSoC4/CyFlash.c **** *  uint32 rowNum:
 233:.\Generated_Source\PSoC4/CyFlash.c **** *   Flash row number.
 234:.\Generated_Source\PSoC4/CyFlash.c **** *
 235:.\Generated_Source\PSoC4/CyFlash.c **** *  uint32 operation:
 236:.\Generated_Source\PSoC4/CyFlash.c **** *    Operation to be executed:
 237:.\Generated_Source\PSoC4/CyFlash.c **** *    CY_FLASH_WRITE_ROW_OPCODE - Write row: erase and program flash row.
 238:.\Generated_Source\PSoC4/CyFlash.c **** *    CY_FLASH_PROGRAM_ROW_OPCODE - Program flash row.
 239:.\Generated_Source\PSoC4/CyFlash.c **** *
 240:.\Generated_Source\PSoC4/CyFlash.c **** *
 241:.\Generated_Source\PSoC4/CyFlash.c **** * Return:
 242:.\Generated_Source\PSoC4/CyFlash.c **** *  Status of the last executed command.
 243:.\Generated_Source\PSoC4/CyFlash.c **** *
 244:.\Generated_Source\PSoC4/CyFlash.c **** *******************************************************************************/
 245:.\Generated_Source\PSoC4/CyFlash.c **** static uint32 CySysFlashCallProgramRow(uint32 rowNum, uint32 operation)
 246:.\Generated_Source\PSoC4/CyFlash.c **** {
 150              		.loc 1 246 0
 151              		.cfi_startproc
 152 0000 80B5     		push	{r7, lr}
 153              		.cfi_def_cfa_offset 8
ARM GAS  C:\Users\IEUser\AppData\Local\Temp\cchFFizP.s 			page 8


 154              		.cfi_offset 7, -8
 155              		.cfi_offset 14, -4
 156 0002 84B0     		sub	sp, sp, #16
 157              		.cfi_def_cfa_offset 24
 158 0004 00AF     		add	r7, sp, #0
 159              		.cfi_def_cfa_register 7
 160 0006 7860     		str	r0, [r7, #4]
 161 0008 3960     		str	r1, [r7]
 247:.\Generated_Source\PSoC4/CyFlash.c ****     volatile struct
 248:.\Generated_Source\PSoC4/CyFlash.c ****     {
 249:.\Generated_Source\PSoC4/CyFlash.c ****         uint8 key1;
 250:.\Generated_Source\PSoC4/CyFlash.c ****         uint8 key2;
 251:.\Generated_Source\PSoC4/CyFlash.c ****         uint16 row;
 252:.\Generated_Source\PSoC4/CyFlash.c ****     } args;
 253:.\Generated_Source\PSoC4/CyFlash.c **** 
 254:.\Generated_Source\PSoC4/CyFlash.c ****     args.key1 = (uint8)CY_FLASH_SROM_KEY1;
 162              		.loc 1 254 0
 163 000a 3B1C     		mov	r3, r7
 164 000c 0C33     		add	r3, r3, #12
 165 000e B622     		mov	r2, #182
 166 0010 1A70     		strb	r2, [r3]
 255:.\Generated_Source\PSoC4/CyFlash.c ****     args.key2 = (uint8)(CY_FLASH_SROM_KEY2 + operation);
 167              		.loc 1 255 0
 168 0012 3B68     		ldr	r3, [r7]
 169 0014 DBB2     		uxtb	r3, r3
 170 0016 2D3B     		sub	r3, r3, #45
 171 0018 DAB2     		uxtb	r2, r3
 172 001a 3B1C     		mov	r3, r7
 173 001c 0C33     		add	r3, r3, #12
 174 001e 5A70     		strb	r2, [r3, #1]
 256:.\Generated_Source\PSoC4/CyFlash.c ****     args.row = (uint16) rowNum;
 175              		.loc 1 256 0
 176 0020 7B68     		ldr	r3, [r7, #4]
 177 0022 9AB2     		uxth	r2, r3
 178 0024 3B1C     		mov	r3, r7
 179 0026 0C33     		add	r3, r3, #12
 180 0028 5A80     		strh	r2, [r3, #2]
 257:.\Generated_Source\PSoC4/CyFlash.c **** 
 258:.\Generated_Source\PSoC4/CyFlash.c ****     return CySysFlashExecSysCall(operation, &args);
 181              		.loc 1 258 0
 182 002a 3A68     		ldr	r2, [r7]
 183 002c 3B1C     		mov	r3, r7
 184 002e 0C33     		add	r3, r3, #12
 185 0030 101C     		mov	r0, r2
 186 0032 191C     		mov	r1, r3
 187 0034 FFF7FEFF 		bl	CySysFlashExecSysCall
 188 0038 031C     		mov	r3, r0
 259:.\Generated_Source\PSoC4/CyFlash.c **** }
 189              		.loc 1 259 0
 190 003a 181C     		mov	r0, r3
 191 003c BD46     		mov	sp, r7
 192 003e 04B0     		add	sp, sp, #16
 193              		@ sp needed
 194 0040 80BD     		pop	{r7, pc}
 195              		.cfi_endproc
 196              	.LFE3:
 197              		.size	CySysFlashCallProgramRow, .-CySysFlashCallProgramRow
ARM GAS  C:\Users\IEUser\AppData\Local\Temp\cchFFizP.s 			page 9


 198 0042 C046     		.section	.text.CySysFlashHandleLoadResult,"ax",%progbits
 199              		.align	2
 200              		.code	16
 201              		.thumb_func
 202              		.type	CySysFlashHandleLoadResult, %function
 203              	CySysFlashHandleLoadResult:
 204              	.LFB4:
 260:.\Generated_Source\PSoC4/CyFlash.c **** 
 261:.\Generated_Source\PSoC4/CyFlash.c **** 
 262:.\Generated_Source\PSoC4/CyFlash.c **** /*******************************************************************************
 263:.\Generated_Source\PSoC4/CyFlash.c **** * Function Name: CySysFlashHandleLoadResult
 264:.\Generated_Source\PSoC4/CyFlash.c **** ********************************************************************************
 265:.\Generated_Source\PSoC4/CyFlash.c **** *
 266:.\Generated_Source\PSoC4/CyFlash.c **** * Summary:
 267:.\Generated_Source\PSoC4/CyFlash.c **** *  Returns the status of the last executed command.
 268:.\Generated_Source\PSoC4/CyFlash.c **** *
 269:.\Generated_Source\PSoC4/CyFlash.c **** * Parameters:
 270:.\Generated_Source\PSoC4/CyFlash.c **** *  None
 271:.\Generated_Source\PSoC4/CyFlash.c **** *
 272:.\Generated_Source\PSoC4/CyFlash.c **** * Return:
 273:.\Generated_Source\PSoC4/CyFlash.c **** *  Status of the last executed command.
 274:.\Generated_Source\PSoC4/CyFlash.c **** *
 275:.\Generated_Source\PSoC4/CyFlash.c **** *******************************************************************************/
 276:.\Generated_Source\PSoC4/CyFlash.c **** static uint32 CySysFlashHandleLoadResult(void)
 277:.\Generated_Source\PSoC4/CyFlash.c **** {
 205              		.loc 1 277 0
 206              		.cfi_startproc
 207 0000 80B5     		push	{r7, lr}
 208              		.cfi_def_cfa_offset 8
 209              		.cfi_offset 7, -8
 210              		.cfi_offset 14, -4
 211 0002 82B0     		sub	sp, sp, #8
 212              		.cfi_def_cfa_offset 16
 213 0004 00AF     		add	r7, sp, #0
 214              		.cfi_def_cfa_register 7
 278:.\Generated_Source\PSoC4/CyFlash.c ****     uint32 value = CY_FLASH_CPUSS_SYSARG_REG;
 215              		.loc 1 278 0
 216 0006 104B     		ldr	r3, .L20
 217 0008 1B68     		ldr	r3, [r3]
 218 000a 7B60     		str	r3, [r7, #4]
 279:.\Generated_Source\PSoC4/CyFlash.c ****     uint32 retValue = CYRET_SUCCESS;
 219              		.loc 1 279 0
 220 000c 0023     		mov	r3, #0
 221 000e 3B60     		str	r3, [r7]
 280:.\Generated_Source\PSoC4/CyFlash.c **** 
 281:.\Generated_Source\PSoC4/CyFlash.c ****     /* Check if value is written to SRAM_BASE */
 282:.\Generated_Source\PSoC4/CyFlash.c ****     while (((value & CY_FLASH_SROM_CMD_RETURN_MASK) != CY_FLASH_SROM_CMD_RETURN_SUCC) && (retValue 
 222              		.loc 1 282 0
 223 0010 0BE0     		b	.L15
 224              	.L18:
 283:.\Generated_Source\PSoC4/CyFlash.c ****     {
 284:.\Generated_Source\PSoC4/CyFlash.c ****         if ((value & CY_FLASH_SROM_CMD_RETURN_MASK) == CY_FLASH_SROM_CMD_RETURN_MASK)
 225              		.loc 1 284 0
 226 0012 7B68     		ldr	r3, [r7, #4]
 227 0014 1B0F     		lsr	r3, r3, #28
 228 0016 1A07     		lsl	r2, r3, #28
 229 0018 F023     		mov	r3, #240
ARM GAS  C:\Users\IEUser\AppData\Local\Temp\cchFFizP.s 			page 10


 230 001a 1B06     		lsl	r3, r3, #24
 231 001c 9A42     		cmp	r2, r3
 232 001e 01D1     		bne	.L16
 285:.\Generated_Source\PSoC4/CyFlash.c ****         {
 286:.\Generated_Source\PSoC4/CyFlash.c ****             retValue = value;   /* Error value */
 233              		.loc 1 286 0
 234 0020 7B68     		ldr	r3, [r7, #4]
 235 0022 3B60     		str	r3, [r7]
 236              	.L16:
 287:.\Generated_Source\PSoC4/CyFlash.c ****         }
 288:.\Generated_Source\PSoC4/CyFlash.c ****         value = CY_FLASH_CPUSS_SYSARG_REG;
 237              		.loc 1 288 0
 238 0024 084B     		ldr	r3, .L20
 239 0026 1B68     		ldr	r3, [r3]
 240 0028 7B60     		str	r3, [r7, #4]
 241              	.L15:
 282:.\Generated_Source\PSoC4/CyFlash.c ****     while (((value & CY_FLASH_SROM_CMD_RETURN_MASK) != CY_FLASH_SROM_CMD_RETURN_SUCC) && (retValue 
 242              		.loc 1 282 0 discriminator 1
 243 002a 7B68     		ldr	r3, [r7, #4]
 244 002c 1B0F     		lsr	r3, r3, #28
 245 002e 1A07     		lsl	r2, r3, #28
 246 0030 A023     		mov	r3, #160
 247 0032 1B06     		lsl	r3, r3, #24
 248 0034 9A42     		cmp	r2, r3
 249 0036 02D0     		beq	.L17
 282:.\Generated_Source\PSoC4/CyFlash.c ****     while (((value & CY_FLASH_SROM_CMD_RETURN_MASK) != CY_FLASH_SROM_CMD_RETURN_SUCC) && (retValue 
 250              		.loc 1 282 0 is_stmt 0 discriminator 2
 251 0038 3B68     		ldr	r3, [r7]
 252 003a 002B     		cmp	r3, #0
 253 003c E9D0     		beq	.L18
 254              	.L17:
 289:.\Generated_Source\PSoC4/CyFlash.c ****     }
 290:.\Generated_Source\PSoC4/CyFlash.c ****     return retValue;
 255              		.loc 1 290 0 is_stmt 1
 256 003e 3B68     		ldr	r3, [r7]
 291:.\Generated_Source\PSoC4/CyFlash.c **** }
 257              		.loc 1 291 0
 258 0040 181C     		mov	r0, r3
 259 0042 BD46     		mov	sp, r7
 260 0044 02B0     		add	sp, sp, #8
 261              		@ sp needed
 262 0046 80BD     		pop	{r7, pc}
 263              	.L21:
 264              		.align	2
 265              	.L20:
 266 0048 08000040 		.word	1073741832
 267              		.cfi_endproc
 268              	.LFE4:
 269              		.size	CySysFlashHandleLoadResult, .-CySysFlashHandleLoadResult
 270              		.section	.text.CySysFlashWriteRow,"ax",%progbits
 271              		.align	2
 272              		.global	CySysFlashWriteRow
 273              		.code	16
 274              		.thumb_func
 275              		.type	CySysFlashWriteRow, %function
 276              	CySysFlashWriteRow:
 277              	.LFB5:
ARM GAS  C:\Users\IEUser\AppData\Local\Temp\cchFFizP.s 			page 11


 292:.\Generated_Source\PSoC4/CyFlash.c **** 
 293:.\Generated_Source\PSoC4/CyFlash.c **** 
 294:.\Generated_Source\PSoC4/CyFlash.c **** /*******************************************************************************
 295:.\Generated_Source\PSoC4/CyFlash.c **** * Function Name: CySysFlashWriteRow
 296:.\Generated_Source\PSoC4/CyFlash.c **** ********************************************************************************
 297:.\Generated_Source\PSoC4/CyFlash.c **** *
 298:.\Generated_Source\PSoC4/CyFlash.c **** * Summary:
 299:.\Generated_Source\PSoC4/CyFlash.c **** *  Writes a row of Flash.
 300:.\Generated_Source\PSoC4/CyFlash.c **** *
 301:.\Generated_Source\PSoC4/CyFlash.c **** * Parameters:
 302:.\Generated_Source\PSoC4/CyFlash.c **** *  uint16 rowNum:
 303:.\Generated_Source\PSoC4/CyFlash.c **** *   Row number. Each row is 128 bytes so a 32KB flash memory will have a valid
 304:.\Generated_Source\PSoC4/CyFlash.c **** *   range of [0-255].
 305:.\Generated_Source\PSoC4/CyFlash.c **** *
 306:.\Generated_Source\PSoC4/CyFlash.c **** *  uint8* rowData:
 307:.\Generated_Source\PSoC4/CyFlash.c **** *   Array of bytes to write.
 308:.\Generated_Source\PSoC4/CyFlash.c **** *
 309:.\Generated_Source\PSoC4/CyFlash.c **** * Return:
 310:.\Generated_Source\PSoC4/CyFlash.c **** *  Status
 311:.\Generated_Source\PSoC4/CyFlash.c **** *     Value             Description
 312:.\Generated_Source\PSoC4/CyFlash.c **** *    CYRET_SUCCESS     Successful
 313:.\Generated_Source\PSoC4/CyFlash.c **** *    CYRET_LOCKED      Flash writing already in use
 314:.\Generated_Source\PSoC4/CyFlash.c **** *    CYRET_CANCELED    Command not accepted
 315:.\Generated_Source\PSoC4/CyFlash.c **** *    CYRET_BAD_PARAM   One or more invalid parameters
 316:.\Generated_Source\PSoC4/CyFlash.c **** *    Other non-zero    Failure
 317:.\Generated_Source\PSoC4/CyFlash.c **** *
 318:.\Generated_Source\PSoC4/CyFlash.c **** *******************************************************************************/
 319:.\Generated_Source\PSoC4/CyFlash.c **** cystatus CySysFlashWriteRow(uint32 rowNum, const uint8 rowData[])
 320:.\Generated_Source\PSoC4/CyFlash.c **** {
 278              		.loc 1 320 0
 279              		.cfi_startproc
 280 0000 90B5     		push	{r4, r7, lr}
 281              		.cfi_def_cfa_offset 12
 282              		.cfi_offset 4, -12
 283              		.cfi_offset 7, -8
 284              		.cfi_offset 14, -4
 285 0002 B1B0     		sub	sp, sp, #196
 286              		.cfi_def_cfa_offset 208
 287 0004 00AF     		add	r7, sp, #0
 288              		.cfi_def_cfa_register 7
 289 0006 7860     		str	r0, [r7, #4]
 290 0008 3960     		str	r1, [r7]
 321:.\Generated_Source\PSoC4/CyFlash.c ****     cystatus retValue = CYRET_SUCCESS;
 291              		.loc 1 321 0
 292 000a 0023     		mov	r3, #0
 293 000c BC20     		mov	r0, #188
 294 000e C019     		add	r0, r0, r7
 295 0010 0360     		str	r3, [r0]
 322:.\Generated_Source\PSoC4/CyFlash.c ****     uint32 statusCode;
 323:.\Generated_Source\PSoC4/CyFlash.c ****     uint8 interruptState;
 324:.\Generated_Source\PSoC4/CyFlash.c ****     struct CySysFlashClockState savedClkCfg;
 325:.\Generated_Source\PSoC4/CyFlash.c ****     volatile struct
 326:.\Generated_Source\PSoC4/CyFlash.c ****     {
 327:.\Generated_Source\PSoC4/CyFlash.c ****         uint8 key1;
 328:.\Generated_Source\PSoC4/CyFlash.c ****         uint8 key2;
 329:.\Generated_Source\PSoC4/CyFlash.c ****         uint8 byteAddr;
 330:.\Generated_Source\PSoC4/CyFlash.c ****         uint8 flashMacro;
ARM GAS  C:\Users\IEUser\AppData\Local\Temp\cchFFizP.s 			page 12


 331:.\Generated_Source\PSoC4/CyFlash.c ****         uint32 numBytesMinusOne;
 332:.\Generated_Source\PSoC4/CyFlash.c ****         uint32 data[CY_FLASH_SIZEOF_ROW / sizeof(uint32)];
 333:.\Generated_Source\PSoC4/CyFlash.c ****     } loadBuf;
 334:.\Generated_Source\PSoC4/CyFlash.c **** #ifdef CYFLASH_CHECKSUM_WORKAROUND
 335:.\Generated_Source\PSoC4/CyFlash.c ****     uint32 needChecksumWorkaround = 0u;
 296              		.loc 1 335 0
 297 0012 0023     		mov	r3, #0
 298 0014 A421     		mov	r1, #164
 299 0016 C919     		add	r1, r1, r7
 300 0018 0B60     		str	r3, [r1]
 336:.\Generated_Source\PSoC4/CyFlash.c ****     uint32 savedIndex = 0u;
 301              		.loc 1 336 0
 302 001a 0023     		mov	r3, #0
 303 001c B822     		mov	r2, #184
 304 001e D219     		add	r2, r2, r7
 305 0020 1360     		str	r3, [r2]
 337:.\Generated_Source\PSoC4/CyFlash.c ****     uint32 savedValue = 0u;
 306              		.loc 1 337 0
 307 0022 0023     		mov	r3, #0
 308 0024 B420     		mov	r0, #180
 309 0026 C019     		add	r0, r0, r7
 310 0028 0360     		str	r3, [r0]
 338:.\Generated_Source\PSoC4/CyFlash.c ****     uint32 checksum = 0u;
 311              		.loc 1 338 0
 312 002a 0023     		mov	r3, #0
 313 002c B021     		mov	r1, #176
 314 002e C919     		add	r1, r1, r7
 315 0030 0B60     		str	r3, [r1]
 339:.\Generated_Source\PSoC4/CyFlash.c ****     uint32 bits = 0u;
 316              		.loc 1 339 0
 317 0032 0023     		mov	r3, #0
 318 0034 AC22     		mov	r2, #172
 319 0036 D219     		add	r2, r2, r7
 320 0038 1360     		str	r3, [r2]
 340:.\Generated_Source\PSoC4/CyFlash.c ****     uint32 i;
 341:.\Generated_Source\PSoC4/CyFlash.c **** #endif  /* CYFLASH_CHECKSUM_WORKAROUND */
 342:.\Generated_Source\PSoC4/CyFlash.c **** 
 343:.\Generated_Source\PSoC4/CyFlash.c ****     if ((rowNum < CY_FLASH_NUMBER_ROWS) && (rowData != 0u))
 321              		.loc 1 343 0
 322 003a 7B68     		ldr	r3, [r7, #4]
 323 003c FF2B     		cmp	r3, #255
 324 003e 00D9     		bls	.LCB273
 325 0040 0AE1     		b	.L23	@long jump
 326              	.LCB273:
 327              		.loc 1 343 0 is_stmt 0 discriminator 1
 328 0042 3B68     		ldr	r3, [r7]
 329 0044 002B     		cmp	r3, #0
 330 0046 00D1     		bne	.LCB276
 331 0048 06E1     		b	.L23	@long jump
 332              	.LCB276:
 344:.\Generated_Source\PSoC4/CyFlash.c ****     {
 345:.\Generated_Source\PSoC4/CyFlash.c **** 
 346:.\Generated_Source\PSoC4/CyFlash.c ****         loadBuf.key1 = (uint8)CY_FLASH_SROM_KEY1;
 333              		.loc 1 346 0 is_stmt 1
 334 004a 3B1C     		mov	r3, r7
 335 004c 0C33     		add	r3, r3, #12
 336 004e B622     		mov	r2, #182
ARM GAS  C:\Users\IEUser\AppData\Local\Temp\cchFFizP.s 			page 13


 337 0050 1A70     		strb	r2, [r3]
 347:.\Generated_Source\PSoC4/CyFlash.c ****         loadBuf.key2 = (uint8)CY_FLASH_SROM_KEY2_LOAD;
 338              		.loc 1 347 0
 339 0052 3B1C     		mov	r3, r7
 340 0054 0C33     		add	r3, r3, #12
 341 0056 D722     		mov	r2, #215
 342 0058 5A70     		strb	r2, [r3, #1]
 348:.\Generated_Source\PSoC4/CyFlash.c ****         loadBuf.byteAddr = (uint8)0u;
 343              		.loc 1 348 0
 344 005a 3B1C     		mov	r3, r7
 345 005c 0C33     		add	r3, r3, #12
 346 005e 0022     		mov	r2, #0
 347 0060 9A70     		strb	r2, [r3, #2]
 349:.\Generated_Source\PSoC4/CyFlash.c **** 
 350:.\Generated_Source\PSoC4/CyFlash.c ****     #if(CY_FLASH_NUMBER_ROWS > 255u)
 351:.\Generated_Source\PSoC4/CyFlash.c ****         loadBuf.flashMacro = (uint8)(rowNum >> 8);
 348              		.loc 1 351 0
 349 0062 7B68     		ldr	r3, [r7, #4]
 350 0064 1B0A     		lsr	r3, r3, #8
 351 0066 DAB2     		uxtb	r2, r3
 352 0068 3B1C     		mov	r3, r7
 353 006a 0C33     		add	r3, r3, #12
 354 006c DA70     		strb	r2, [r3, #3]
 352:.\Generated_Source\PSoC4/CyFlash.c ****     #else
 353:.\Generated_Source\PSoC4/CyFlash.c ****         loadBuf.flashMacro = (uint8)0u;
 354:.\Generated_Source\PSoC4/CyFlash.c ****     #endif  /* (CY_FLASH_NUMBER_ROWS > 255u) */
 355:.\Generated_Source\PSoC4/CyFlash.c **** 
 356:.\Generated_Source\PSoC4/CyFlash.c ****         loadBuf.numBytesMinusOne = (CY_FLASH_SIZEOF_ROW - 1u);
 355              		.loc 1 356 0
 356 006e 3B1C     		mov	r3, r7
 357 0070 0C33     		add	r3, r3, #12
 358 0072 7F22     		mov	r2, #127
 359 0074 5A60     		str	r2, [r3, #4]
 357:.\Generated_Source\PSoC4/CyFlash.c ****         (void)memcpy((void *)loadBuf.data, rowData, CY_FLASH_SIZEOF_ROW);
 360              		.loc 1 357 0
 361 0076 3B1C     		mov	r3, r7
 362 0078 0C33     		add	r3, r3, #12
 363 007a 1A1C     		mov	r2, r3
 364 007c 0832     		add	r2, r2, #8
 365 007e 3B68     		ldr	r3, [r7]
 366 0080 101C     		mov	r0, r2
 367 0082 191C     		mov	r1, r3
 368 0084 8022     		mov	r2, #128
 369 0086 FFF7FEFF 		bl	memcpy
 358:.\Generated_Source\PSoC4/CyFlash.c **** 
 359:.\Generated_Source\PSoC4/CyFlash.c ****     #ifdef CYFLASH_CHECKSUM_WORKAROUND
 360:.\Generated_Source\PSoC4/CyFlash.c ****         for (i = 0u; i < (CY_FLASH_SIZEOF_ROW / sizeof(uint32)); i++)
 370              		.loc 1 360 0
 371 008a 0023     		mov	r3, #0
 372 008c A820     		mov	r0, #168
 373 008e C019     		add	r0, r0, r7
 374 0090 0360     		str	r3, [r0]
 375 0092 30E0     		b	.L24
 376              	.L26:
 377              	.LBB2:
 361:.\Generated_Source\PSoC4/CyFlash.c ****         {
 362:.\Generated_Source\PSoC4/CyFlash.c ****             uint32 w = loadBuf.data[i];
ARM GAS  C:\Users\IEUser\AppData\Local\Temp\cchFFizP.s 			page 14


 378              		.loc 1 362 0
 379 0094 3B1C     		mov	r3, r7
 380 0096 0C33     		add	r3, r3, #12
 381 0098 A821     		mov	r1, #168
 382 009a C919     		add	r1, r1, r7
 383 009c 0A68     		ldr	r2, [r1]
 384 009e 0232     		add	r2, r2, #2
 385 00a0 9200     		lsl	r2, r2, #2
 386 00a2 D358     		ldr	r3, [r2, r3]
 387 00a4 A022     		mov	r2, #160
 388 00a6 D219     		add	r2, r2, r7
 389 00a8 1360     		str	r3, [r2]
 363:.\Generated_Source\PSoC4/CyFlash.c ****             if (w != 0u)
 390              		.loc 1 363 0
 391 00aa A020     		mov	r0, #160
 392 00ac C019     		add	r0, r0, r7
 393 00ae 0368     		ldr	r3, [r0]
 394 00b0 002B     		cmp	r3, #0
 395 00b2 19D0     		beq	.L25
 364:.\Generated_Source\PSoC4/CyFlash.c ****             {
 365:.\Generated_Source\PSoC4/CyFlash.c ****                 checksum += w;
 396              		.loc 1 365 0
 397 00b4 B021     		mov	r1, #176
 398 00b6 C919     		add	r1, r1, r7
 399 00b8 0A68     		ldr	r2, [r1]
 400 00ba A020     		mov	r0, #160
 401 00bc C019     		add	r0, r0, r7
 402 00be 0368     		ldr	r3, [r0]
 403 00c0 D318     		add	r3, r2, r3
 404 00c2 B021     		mov	r1, #176
 405 00c4 C919     		add	r1, r1, r7
 406 00c6 0B60     		str	r3, [r1]
 366:.\Generated_Source\PSoC4/CyFlash.c ****                 bits |= w;
 407              		.loc 1 366 0
 408 00c8 AC23     		mov	r3, #172
 409 00ca DB19     		add	r3, r3, r7
 410 00cc 1A68     		ldr	r2, [r3]
 411 00ce A020     		mov	r0, #160
 412 00d0 C019     		add	r0, r0, r7
 413 00d2 0368     		ldr	r3, [r0]
 414 00d4 1343     		orr	r3, r2
 415 00d6 AC21     		mov	r1, #172
 416 00d8 C919     		add	r1, r1, r7
 417 00da 0B60     		str	r3, [r1]
 367:.\Generated_Source\PSoC4/CyFlash.c ****                 savedIndex = i;
 418              		.loc 1 367 0
 419 00dc A822     		mov	r2, #168
 420 00de D219     		add	r2, r2, r7
 421 00e0 1368     		ldr	r3, [r2]
 422 00e2 B820     		mov	r0, #184
 423 00e4 C019     		add	r0, r0, r7
 424 00e6 0360     		str	r3, [r0]
 425              	.L25:
 426              	.LBE2:
 360:.\Generated_Source\PSoC4/CyFlash.c ****         for (i = 0u; i < (CY_FLASH_SIZEOF_ROW / sizeof(uint32)); i++)
 427              		.loc 1 360 0
 428 00e8 A821     		mov	r1, #168
ARM GAS  C:\Users\IEUser\AppData\Local\Temp\cchFFizP.s 			page 15


 429 00ea C919     		add	r1, r1, r7
 430 00ec 0B68     		ldr	r3, [r1]
 431 00ee 0133     		add	r3, r3, #1
 432 00f0 A822     		mov	r2, #168
 433 00f2 D219     		add	r2, r2, r7
 434 00f4 1360     		str	r3, [r2]
 435              	.L24:
 360:.\Generated_Source\PSoC4/CyFlash.c ****         for (i = 0u; i < (CY_FLASH_SIZEOF_ROW / sizeof(uint32)); i++)
 436              		.loc 1 360 0 is_stmt 0 discriminator 1
 437 00f6 A820     		mov	r0, #168
 438 00f8 C019     		add	r0, r0, r7
 439 00fa 0368     		ldr	r3, [r0]
 440 00fc 1F2B     		cmp	r3, #31
 441 00fe C9D9     		bls	.L26
 368:.\Generated_Source\PSoC4/CyFlash.c ****             }
 369:.\Generated_Source\PSoC4/CyFlash.c ****         }
 370:.\Generated_Source\PSoC4/CyFlash.c **** 
 371:.\Generated_Source\PSoC4/CyFlash.c ****         needChecksumWorkaround = ((checksum == 0u) && (bits != 0u)) ? 1u : 0u;
 442              		.loc 1 371 0 is_stmt 1
 443 0100 B021     		mov	r1, #176
 444 0102 C919     		add	r1, r1, r7
 445 0104 0B68     		ldr	r3, [r1]
 446 0106 002B     		cmp	r3, #0
 447 0108 06D1     		bne	.L27
 448              		.loc 1 371 0 is_stmt 0 discriminator 1
 449 010a AC22     		mov	r2, #172
 450 010c D219     		add	r2, r2, r7
 451 010e 1368     		ldr	r3, [r2]
 452 0110 002B     		cmp	r3, #0
 453 0112 01D0     		beq	.L27
 454 0114 0123     		mov	r3, #1
 455 0116 00E0     		b	.L28
 456              	.L27:
 457              		.loc 1 371 0 discriminator 2
 458 0118 0023     		mov	r3, #0
 459              	.L28:
 460              		.loc 1 371 0 discriminator 3
 461 011a A420     		mov	r0, #164
 462 011c C019     		add	r0, r0, r7
 463 011e 0360     		str	r3, [r0]
 372:.\Generated_Source\PSoC4/CyFlash.c ****         if (needChecksumWorkaround != 0u)
 464              		.loc 1 372 0 is_stmt 1 discriminator 3
 465 0120 A421     		mov	r1, #164
 466 0122 C919     		add	r1, r1, r7
 467 0124 0B68     		ldr	r3, [r1]
 468 0126 002B     		cmp	r3, #0
 469 0128 13D0     		beq	.L29
 373:.\Generated_Source\PSoC4/CyFlash.c ****         {
 374:.\Generated_Source\PSoC4/CyFlash.c ****             savedValue = loadBuf.data[savedIndex];
 470              		.loc 1 374 0
 471 012a 3B1C     		mov	r3, r7
 472 012c 0C33     		add	r3, r3, #12
 473 012e B820     		mov	r0, #184
 474 0130 C019     		add	r0, r0, r7
 475 0132 0268     		ldr	r2, [r0]
 476 0134 0232     		add	r2, r2, #2
 477 0136 9200     		lsl	r2, r2, #2
ARM GAS  C:\Users\IEUser\AppData\Local\Temp\cchFFizP.s 			page 16


 478 0138 D358     		ldr	r3, [r2, r3]
 479 013a B421     		mov	r1, #180
 480 013c C919     		add	r1, r1, r7
 481 013e 0B60     		str	r3, [r1]
 375:.\Generated_Source\PSoC4/CyFlash.c ****             loadBuf.data[savedIndex] = 0u;
 482              		.loc 1 375 0
 483 0140 3B1C     		mov	r3, r7
 484 0142 0C33     		add	r3, r3, #12
 485 0144 B820     		mov	r0, #184
 486 0146 C019     		add	r0, r0, r7
 487 0148 0268     		ldr	r2, [r0]
 488 014a 0232     		add	r2, r2, #2
 489 014c 9200     		lsl	r2, r2, #2
 490 014e 0021     		mov	r1, #0
 491 0150 D150     		str	r1, [r2, r3]
 492              	.L29:
 376:.\Generated_Source\PSoC4/CyFlash.c ****         }
 377:.\Generated_Source\PSoC4/CyFlash.c ****     #endif  /* CYFLASH_CHECKSUM_WORKAROUND */
 378:.\Generated_Source\PSoC4/CyFlash.c **** 
 379:.\Generated_Source\PSoC4/CyFlash.c ****         /* First load data. Then invoke Write row command. */
 380:.\Generated_Source\PSoC4/CyFlash.c ****         (void)CySysFlashExecSysCall(CY_FLASH_LOAD_BYTE_OPCODE, &loadBuf);
 493              		.loc 1 380 0
 494 0152 3B1C     		mov	r3, r7
 495 0154 0C33     		add	r3, r3, #12
 496 0156 0420     		mov	r0, #4
 497 0158 191C     		mov	r1, r3
 498 015a FFF7FEFF 		bl	CySysFlashExecSysCall
 381:.\Generated_Source\PSoC4/CyFlash.c ****         retValue = CySysFlashHandleLoadResult();
 499              		.loc 1 381 0
 500 015e FFF7FEFF 		bl	CySysFlashHandleLoadResult
 501 0162 031C     		mov	r3, r0
 502 0164 BC21     		mov	r1, #188
 503 0166 C919     		add	r1, r1, r7
 504 0168 0B60     		str	r3, [r1]
 382:.\Generated_Source\PSoC4/CyFlash.c ****         if(retValue == CYRET_SUCCESS)
 505              		.loc 1 382 0
 506 016a BC22     		mov	r2, #188
 507 016c D219     		add	r2, r2, r7
 508 016e 1368     		ldr	r3, [r2]
 509 0170 002B     		cmp	r3, #0
 510 0172 70D1     		bne	.L30
 383:.\Generated_Source\PSoC4/CyFlash.c ****         {
 384:.\Generated_Source\PSoC4/CyFlash.c ****             /* Mask all exceptions to guarantee that IMO configuration will be changed
 385:.\Generated_Source\PSoC4/CyFlash.c ****             * in the atomic way. It will not affect the syscall execution (flash row write)
 386:.\Generated_Source\PSoC4/CyFlash.c ****             * since it is executed in the NMI context.
 387:.\Generated_Source\PSoC4/CyFlash.c ****             */
 388:.\Generated_Source\PSoC4/CyFlash.c ****             interruptState = CyEnterCriticalSection();
 511              		.loc 1 388 0
 512 0174 3C1C     		mov	r4, r7
 513 0176 9F34     		add	r4, r4, #159
 514 0178 FFF7FEFF 		bl	CyEnterCriticalSection
 515 017c 031C     		mov	r3, r0
 516 017e 2370     		strb	r3, [r4]
 389:.\Generated_Source\PSoC4/CyFlash.c ****             CySysFlashSetupClock(&savedClkCfg);
 517              		.loc 1 389 0
 518 0180 3B1C     		mov	r3, r7
 519 0182 9433     		add	r3, r3, #148
ARM GAS  C:\Users\IEUser\AppData\Local\Temp\cchFFizP.s 			page 17


 520 0184 181C     		mov	r0, r3
 521 0186 FFF7FEFF 		bl	CySysFlashSetupClock
 390:.\Generated_Source\PSoC4/CyFlash.c **** 
 391:.\Generated_Source\PSoC4/CyFlash.c ****             statusCode = CySysFlashCallProgramRow(rowNum, CY_FLASH_WRITE_ROW_OPCODE);
 522              		.loc 1 391 0
 523 018a 7B68     		ldr	r3, [r7, #4]
 524 018c 181C     		mov	r0, r3
 525 018e 0521     		mov	r1, #5
 526 0190 FFF7FEFF 		bl	CySysFlashCallProgramRow
 527 0194 031C     		mov	r3, r0
 528 0196 9820     		mov	r0, #152
 529 0198 C019     		add	r0, r0, r7
 530 019a 0360     		str	r3, [r0]
 392:.\Generated_Source\PSoC4/CyFlash.c ****             if (statusCode != CY_FLASH_SROM_CMD_RETURN_SUCC)
 531              		.loc 1 392 0
 532 019c 9821     		mov	r1, #152
 533 019e C919     		add	r1, r1, r7
 534 01a0 0A68     		ldr	r2, [r1]
 535 01a2 A023     		mov	r3, #160
 536 01a4 1B06     		lsl	r3, r3, #24
 537 01a6 9A42     		cmp	r2, r3
 538 01a8 05D0     		beq	.L31
 393:.\Generated_Source\PSoC4/CyFlash.c ****             {
 394:.\Generated_Source\PSoC4/CyFlash.c ****                 retValue = statusCode;
 539              		.loc 1 394 0
 540 01aa 9822     		mov	r2, #152
 541 01ac D219     		add	r2, r2, r7
 542 01ae 1368     		ldr	r3, [r2]
 543 01b0 BC20     		mov	r0, #188
 544 01b2 C019     		add	r0, r0, r7
 545 01b4 0360     		str	r3, [r0]
 546              	.L31:
 395:.\Generated_Source\PSoC4/CyFlash.c ****             }
 396:.\Generated_Source\PSoC4/CyFlash.c **** 
 397:.\Generated_Source\PSoC4/CyFlash.c ****         #ifdef CYFLASH_CHECKSUM_WORKAROUND
 398:.\Generated_Source\PSoC4/CyFlash.c ****             if ((retValue == CYRET_SUCCESS) && (needChecksumWorkaround != 0u))
 547              		.loc 1 398 0
 548 01b6 BC21     		mov	r1, #188
 549 01b8 C919     		add	r1, r1, r7
 550 01ba 0B68     		ldr	r3, [r1]
 551 01bc 002B     		cmp	r3, #0
 552 01be 3ED1     		bne	.L32
 553              		.loc 1 398 0 is_stmt 0 discriminator 1
 554 01c0 A422     		mov	r2, #164
 555 01c2 D219     		add	r2, r2, r7
 556 01c4 1368     		ldr	r3, [r2]
 557 01c6 002B     		cmp	r3, #0
 558 01c8 39D0     		beq	.L32
 399:.\Generated_Source\PSoC4/CyFlash.c ****             {
 400:.\Generated_Source\PSoC4/CyFlash.c ****                 (void)memset((void *)loadBuf.data, 0, CY_FLASH_SIZEOF_ROW);
 559              		.loc 1 400 0 is_stmt 1
 560 01ca 3B1C     		mov	r3, r7
 561 01cc 0C33     		add	r3, r3, #12
 562 01ce 0833     		add	r3, r3, #8
 563 01d0 181C     		mov	r0, r3
 564 01d2 0021     		mov	r1, #0
 565 01d4 8022     		mov	r2, #128
ARM GAS  C:\Users\IEUser\AppData\Local\Temp\cchFFizP.s 			page 18


 566 01d6 FFF7FEFF 		bl	memset
 401:.\Generated_Source\PSoC4/CyFlash.c ****                 loadBuf.data[savedIndex] = savedValue;
 567              		.loc 1 401 0
 568 01da 3B1C     		mov	r3, r7
 569 01dc 0C33     		add	r3, r3, #12
 570 01de B820     		mov	r0, #184
 571 01e0 C019     		add	r0, r0, r7
 572 01e2 0268     		ldr	r2, [r0]
 573 01e4 0232     		add	r2, r2, #2
 574 01e6 9200     		lsl	r2, r2, #2
 575 01e8 B420     		mov	r0, #180
 576 01ea C019     		add	r0, r0, r7
 577 01ec 0168     		ldr	r1, [r0]
 578 01ee D150     		str	r1, [r2, r3]
 402:.\Generated_Source\PSoC4/CyFlash.c ****                 (void)CySysFlashExecSysCall(CY_FLASH_LOAD_BYTE_OPCODE, &loadBuf);
 579              		.loc 1 402 0
 580 01f0 3B1C     		mov	r3, r7
 581 01f2 0C33     		add	r3, r3, #12
 582 01f4 0420     		mov	r0, #4
 583 01f6 191C     		mov	r1, r3
 584 01f8 FFF7FEFF 		bl	CySysFlashExecSysCall
 403:.\Generated_Source\PSoC4/CyFlash.c ****                 retValue = CySysFlashHandleLoadResult();
 585              		.loc 1 403 0
 586 01fc FFF7FEFF 		bl	CySysFlashHandleLoadResult
 587 0200 031C     		mov	r3, r0
 588 0202 BC21     		mov	r1, #188
 589 0204 C919     		add	r1, r1, r7
 590 0206 0B60     		str	r3, [r1]
 404:.\Generated_Source\PSoC4/CyFlash.c ****                 if (retValue == CYRET_SUCCESS)
 591              		.loc 1 404 0
 592 0208 BC22     		mov	r2, #188
 593 020a D219     		add	r2, r2, r7
 594 020c 1368     		ldr	r3, [r2]
 595 020e 002B     		cmp	r3, #0
 596 0210 15D1     		bne	.L32
 405:.\Generated_Source\PSoC4/CyFlash.c ****                 {
 406:.\Generated_Source\PSoC4/CyFlash.c ****                     statusCode = CySysFlashCallProgramRow(rowNum, CY_FLASH_PROGRAM_ROW_OPCODE);
 597              		.loc 1 406 0
 598 0212 7B68     		ldr	r3, [r7, #4]
 599 0214 181C     		mov	r0, r3
 600 0216 0621     		mov	r1, #6
 601 0218 FFF7FEFF 		bl	CySysFlashCallProgramRow
 602 021c 031C     		mov	r3, r0
 603 021e 9820     		mov	r0, #152
 604 0220 C019     		add	r0, r0, r7
 605 0222 0360     		str	r3, [r0]
 407:.\Generated_Source\PSoC4/CyFlash.c ****                     if (statusCode != CY_FLASH_SROM_CMD_RETURN_SUCC)
 606              		.loc 1 407 0
 607 0224 9821     		mov	r1, #152
 608 0226 C919     		add	r1, r1, r7
 609 0228 0A68     		ldr	r2, [r1]
 610 022a A023     		mov	r3, #160
 611 022c 1B06     		lsl	r3, r3, #24
 612 022e 9A42     		cmp	r2, r3
 613 0230 05D0     		beq	.L32
 408:.\Generated_Source\PSoC4/CyFlash.c ****                     {
 409:.\Generated_Source\PSoC4/CyFlash.c ****                         retValue = statusCode;
ARM GAS  C:\Users\IEUser\AppData\Local\Temp\cchFFizP.s 			page 19


 614              		.loc 1 409 0
 615 0232 9822     		mov	r2, #152
 616 0234 D219     		add	r2, r2, r7
 617 0236 1368     		ldr	r3, [r2]
 618 0238 BC20     		mov	r0, #188
 619 023a C019     		add	r0, r0, r7
 620 023c 0360     		str	r3, [r0]
 621              	.L32:
 410:.\Generated_Source\PSoC4/CyFlash.c ****                     }
 411:.\Generated_Source\PSoC4/CyFlash.c ****                 }
 412:.\Generated_Source\PSoC4/CyFlash.c ****             }
 413:.\Generated_Source\PSoC4/CyFlash.c ****         #endif  /* CYFLASH_CHECKSUM_WORKAROUND */
 414:.\Generated_Source\PSoC4/CyFlash.c **** 
 415:.\Generated_Source\PSoC4/CyFlash.c ****             CySysFlashRestoreClock(&savedClkCfg);
 622              		.loc 1 415 0
 623 023e 3B1C     		mov	r3, r7
 624 0240 9433     		add	r3, r3, #148
 625 0242 181C     		mov	r0, r3
 626 0244 FFF7FEFF 		bl	CySysFlashRestoreClock
 416:.\Generated_Source\PSoC4/CyFlash.c ****             CyExitCriticalSection(interruptState);
 627              		.loc 1 416 0
 628 0248 3B1C     		mov	r3, r7
 629 024a 9F33     		add	r3, r3, #159
 630 024c 1B78     		ldrb	r3, [r3]
 631 024e 181C     		mov	r0, r3
 632 0250 FFF7FEFF 		bl	CyExitCriticalSection
 382:.\Generated_Source\PSoC4/CyFlash.c ****         if(retValue == CYRET_SUCCESS)
 633              		.loc 1 382 0
 634 0254 04E0     		b	.L33
 635              	.L30:
 382:.\Generated_Source\PSoC4/CyFlash.c ****         if(retValue == CYRET_SUCCESS)
 636              		.loc 1 382 0 is_stmt 0 discriminator 1
 637 0256 03E0     		b	.L33
 638              	.L23:
 417:.\Generated_Source\PSoC4/CyFlash.c ****         }
 418:.\Generated_Source\PSoC4/CyFlash.c ****     }
 419:.\Generated_Source\PSoC4/CyFlash.c ****     else
 420:.\Generated_Source\PSoC4/CyFlash.c ****     {
 421:.\Generated_Source\PSoC4/CyFlash.c ****         retValue = CYRET_BAD_PARAM;
 639              		.loc 1 421 0 is_stmt 1
 640 0258 0123     		mov	r3, #1
 641 025a BC21     		mov	r1, #188
 642 025c C919     		add	r1, r1, r7
 643 025e 0B60     		str	r3, [r1]
 644              	.L33:
 422:.\Generated_Source\PSoC4/CyFlash.c ****     }
 423:.\Generated_Source\PSoC4/CyFlash.c **** 
 424:.\Generated_Source\PSoC4/CyFlash.c ****     return (retValue);
 645              		.loc 1 424 0
 646 0260 BC22     		mov	r2, #188
 647 0262 D219     		add	r2, r2, r7
 648 0264 1368     		ldr	r3, [r2]
 425:.\Generated_Source\PSoC4/CyFlash.c **** }
 649              		.loc 1 425 0
 650 0266 181C     		mov	r0, r3
 651 0268 BD46     		mov	sp, r7
 652 026a 31B0     		add	sp, sp, #196
ARM GAS  C:\Users\IEUser\AppData\Local\Temp\cchFFizP.s 			page 20


 653              		@ sp needed
 654 026c 90BD     		pop	{r4, r7, pc}
 655              		.cfi_endproc
 656              	.LFE5:
 657              		.size	CySysFlashWriteRow, .-CySysFlashWriteRow
 658 026e C046     		.section	.text.CySysFlashSetWaitCycles,"ax",%progbits
 659              		.align	2
 660              		.global	CySysFlashSetWaitCycles
 661              		.code	16
 662              		.thumb_func
 663              		.type	CySysFlashSetWaitCycles, %function
 664              	CySysFlashSetWaitCycles:
 665              	.LFB6:
 426:.\Generated_Source\PSoC4/CyFlash.c **** 
 427:.\Generated_Source\PSoC4/CyFlash.c **** #if(CY_PSOC4A)
 428:.\Generated_Source\PSoC4/CyFlash.c **** 
 429:.\Generated_Source\PSoC4/CyFlash.c ****     /*******************************************************************************
 430:.\Generated_Source\PSoC4/CyFlash.c ****     * Function Name: CySysFlashSetWaitCycles
 431:.\Generated_Source\PSoC4/CyFlash.c ****     ********************************************************************************
 432:.\Generated_Source\PSoC4/CyFlash.c ****     *
 433:.\Generated_Source\PSoC4/CyFlash.c ****     * Summary:
 434:.\Generated_Source\PSoC4/CyFlash.c ****     *  Sets the number of clock cycles the cache will wait before it samples data
 435:.\Generated_Source\PSoC4/CyFlash.c ****     *  coming back from Flash. This function must be called before increasing the
 436:.\Generated_Source\PSoC4/CyFlash.c ****     *  SYSCLK clock frequency. It can optionally be called after lowering SYSCLK
 437:.\Generated_Source\PSoC4/CyFlash.c ****     *  clock frequency in order to improve the CPU performance.
 438:.\Generated_Source\PSoC4/CyFlash.c ****     *
 439:.\Generated_Source\PSoC4/CyFlash.c ****     * Parameters:
 440:.\Generated_Source\PSoC4/CyFlash.c ****     *  freq: Valid range [3-48].  Frequency for operation of the IMO.
 441:.\Generated_Source\PSoC4/CyFlash.c ****     *  Note: Invalid frequency will be ignored.
 442:.\Generated_Source\PSoC4/CyFlash.c ****     *
 443:.\Generated_Source\PSoC4/CyFlash.c ****     * Return:
 444:.\Generated_Source\PSoC4/CyFlash.c ****     *  None
 445:.\Generated_Source\PSoC4/CyFlash.c ****     *
 446:.\Generated_Source\PSoC4/CyFlash.c ****     *******************************************************************************/
 447:.\Generated_Source\PSoC4/CyFlash.c ****     void CySysFlashSetWaitCycles(uint32 freq)
 448:.\Generated_Source\PSoC4/CyFlash.c ****     {
 666              		.loc 1 448 0
 667              		.cfi_startproc
 668 0000 80B5     		push	{r7, lr}
 669              		.cfi_def_cfa_offset 8
 670              		.cfi_offset 7, -8
 671              		.cfi_offset 14, -4
 672 0002 82B0     		sub	sp, sp, #8
 673              		.cfi_def_cfa_offset 16
 674 0004 00AF     		add	r7, sp, #0
 675              		.cfi_def_cfa_register 7
 676 0006 7860     		str	r0, [r7, #4]
 449:.\Generated_Source\PSoC4/CyFlash.c ****         if ((freq >= CY_SYS_CLK_IMO_MIN_FREQ_MHZ) && (freq <= CY_SYS_CLK_IMO_MAX_FREQ_MHZ))
 677              		.loc 1 449 0
 678 0008 7B68     		ldr	r3, [r7, #4]
 679 000a 022B     		cmp	r3, #2
 680 000c 14D9     		bls	.L36
 681              		.loc 1 449 0 is_stmt 0 discriminator 1
 682 000e 7B68     		ldr	r3, [r7, #4]
 683 0010 302B     		cmp	r3, #48
 684 0012 11D8     		bhi	.L36
 450:.\Generated_Source\PSoC4/CyFlash.c ****         {
ARM GAS  C:\Users\IEUser\AppData\Local\Temp\cchFFizP.s 			page 21


 451:.\Generated_Source\PSoC4/CyFlash.c ****             if ( freq <= CY_FLASH_SYSCLK_BOUNDARY_MHZ )
 685              		.loc 1 451 0 is_stmt 1
 686 0014 7B68     		ldr	r3, [r7, #4]
 687 0016 182B     		cmp	r3, #24
 688 0018 06D8     		bhi	.L37
 452:.\Generated_Source\PSoC4/CyFlash.c ****             {
 453:.\Generated_Source\PSoC4/CyFlash.c ****                 CY_SYS_CLK_SELECT_REG &= (uint32)(~CY_FLASH_WAIT_STATE_EN);
 689              		.loc 1 453 0
 690 001a 0A4B     		ldr	r3, .L40
 691 001c 094A     		ldr	r2, .L40
 692 001e 1168     		ldr	r1, [r2]
 693 0020 094A     		ldr	r2, .L40+4
 694 0022 0A40     		and	r2, r1
 695 0024 1A60     		str	r2, [r3]
 451:.\Generated_Source\PSoC4/CyFlash.c ****             if ( freq <= CY_FLASH_SYSCLK_BOUNDARY_MHZ )
 696              		.loc 1 451 0
 697 0026 0AE0     		b	.L35
 698              	.L37:
 454:.\Generated_Source\PSoC4/CyFlash.c ****             }
 455:.\Generated_Source\PSoC4/CyFlash.c ****             else
 456:.\Generated_Source\PSoC4/CyFlash.c ****             {
 457:.\Generated_Source\PSoC4/CyFlash.c ****                 CY_SYS_CLK_SELECT_REG |= CY_FLASH_WAIT_STATE_EN;
 699              		.loc 1 457 0
 700 0028 064B     		ldr	r3, .L40
 701 002a 064A     		ldr	r2, .L40
 702 002c 1268     		ldr	r2, [r2]
 703 002e 8021     		mov	r1, #128
 704 0030 C902     		lsl	r1, r1, #11
 705 0032 0A43     		orr	r2, r1
 706 0034 1A60     		str	r2, [r3]
 451:.\Generated_Source\PSoC4/CyFlash.c ****             if ( freq <= CY_FLASH_SYSCLK_BOUNDARY_MHZ )
 707              		.loc 1 451 0
 708 0036 02E0     		b	.L35
 709              	.L36:
 458:.\Generated_Source\PSoC4/CyFlash.c ****             }
 459:.\Generated_Source\PSoC4/CyFlash.c ****         }
 460:.\Generated_Source\PSoC4/CyFlash.c ****         else
 461:.\Generated_Source\PSoC4/CyFlash.c ****         {
 462:.\Generated_Source\PSoC4/CyFlash.c ****             /* Halt CPU in debug mode if frequency is invalid */
 463:.\Generated_Source\PSoC4/CyFlash.c ****             CYASSERT(0u != 0u);
 710              		.loc 1 463 0 discriminator 1
 711 0038 0020     		mov	r0, #0
 712 003a FFF7FEFF 		bl	CyHalt
 713              	.L35:
 464:.\Generated_Source\PSoC4/CyFlash.c ****         }
 465:.\Generated_Source\PSoC4/CyFlash.c ****     }
 714              		.loc 1 465 0
 715 003e BD46     		mov	sp, r7
 716 0040 02B0     		add	sp, sp, #8
 717              		@ sp needed
 718 0042 80BD     		pop	{r7, pc}
 719              	.L41:
 720              		.align	2
 721              	.L40:
 722 0044 00010B40 		.word	1074462976
 723 0048 FFFFFBFF 		.word	-262145
 724              		.cfi_endproc
ARM GAS  C:\Users\IEUser\AppData\Local\Temp\cchFFizP.s 			page 22


 725              	.LFE6:
 726              		.size	CySysFlashSetWaitCycles, .-CySysFlashSetWaitCycles
 727              		.text
 728              	.Letext0:
 729              		.file 2 ".\\Generated_Source\\PSoC4\\cytypes.h"