ARM GAS  C:\Users\TINYWI~1\AppData\Local\Temp\ccN3U5GB.s 			page 1


   1              		.cpu cortex-m0
   2              		.fpu softvfp
   3              		.eabi_attribute 20, 1
   4              		.eabi_attribute 21, 1
   5              		.eabi_attribute 23, 3
   6              		.eabi_attribute 24, 1
   7              		.eabi_attribute 25, 1
   8              		.eabi_attribute 26, 1
   9              		.eabi_attribute 30, 6
  10              		.eabi_attribute 34, 0
  11              		.eabi_attribute 18, 4
  12              		.code	16
  13              		.file	"ISR_1.c"
  14              		.text
  15              	.Ltext0:
  16              		.cfi_sections	.debug_frame
  17              		.section	.text.ISR_1_Start,"ax",%progbits
  18              		.align	2
  19              		.global	ISR_1_Start
  20              		.code	16
  21              		.thumb_func
  22              		.type	ISR_1_Start, %function
  23              	ISR_1_Start:
  24              	.LFB0:
  25              		.file 1 ".\\Generated_Source\\PSoC4\\ISR_1.c"
   1:.\Generated_Source\PSoC4/ISR_1.c **** /*******************************************************************************
   2:.\Generated_Source\PSoC4/ISR_1.c **** * File Name: ISR_1.c  
   3:.\Generated_Source\PSoC4/ISR_1.c **** * Version 1.70
   4:.\Generated_Source\PSoC4/ISR_1.c **** *
   5:.\Generated_Source\PSoC4/ISR_1.c **** *  Description:
   6:.\Generated_Source\PSoC4/ISR_1.c **** *   API for controlling the state of an interrupt.
   7:.\Generated_Source\PSoC4/ISR_1.c **** *
   8:.\Generated_Source\PSoC4/ISR_1.c **** *
   9:.\Generated_Source\PSoC4/ISR_1.c **** *  Note:
  10:.\Generated_Source\PSoC4/ISR_1.c **** *
  11:.\Generated_Source\PSoC4/ISR_1.c **** ********************************************************************************
  12:.\Generated_Source\PSoC4/ISR_1.c **** * Copyright 2008-2015, Cypress Semiconductor Corporation.  All rights reserved.
  13:.\Generated_Source\PSoC4/ISR_1.c **** * You may use this file only in accordance with the license, terms, conditions, 
  14:.\Generated_Source\PSoC4/ISR_1.c **** * disclaimers, and limitations in the end user license agreement accompanying 
  15:.\Generated_Source\PSoC4/ISR_1.c **** * the software package with which this file was provided.
  16:.\Generated_Source\PSoC4/ISR_1.c **** *******************************************************************************/
  17:.\Generated_Source\PSoC4/ISR_1.c **** 
  18:.\Generated_Source\PSoC4/ISR_1.c **** 
  19:.\Generated_Source\PSoC4/ISR_1.c **** #include <cydevice_trm.h>
  20:.\Generated_Source\PSoC4/ISR_1.c **** #include <CyLib.h>
  21:.\Generated_Source\PSoC4/ISR_1.c **** #include <ISR_1.h>
  22:.\Generated_Source\PSoC4/ISR_1.c **** 
  23:.\Generated_Source\PSoC4/ISR_1.c **** #if !defined(ISR_1__REMOVED) /* Check for removal by optimization */
  24:.\Generated_Source\PSoC4/ISR_1.c **** 
  25:.\Generated_Source\PSoC4/ISR_1.c **** /*******************************************************************************
  26:.\Generated_Source\PSoC4/ISR_1.c **** *  Place your includes, defines and code here 
  27:.\Generated_Source\PSoC4/ISR_1.c **** ********************************************************************************/
  28:.\Generated_Source\PSoC4/ISR_1.c **** /* `#START ISR_1_intc` */
  29:.\Generated_Source\PSoC4/ISR_1.c **** 
  30:.\Generated_Source\PSoC4/ISR_1.c **** /* `#END` */
  31:.\Generated_Source\PSoC4/ISR_1.c **** 
  32:.\Generated_Source\PSoC4/ISR_1.c **** extern cyisraddress CyRamVectors[CYINT_IRQ_BASE + CY_NUM_INTERRUPTS];
ARM GAS  C:\Users\TINYWI~1\AppData\Local\Temp\ccN3U5GB.s 			page 2


  33:.\Generated_Source\PSoC4/ISR_1.c **** 
  34:.\Generated_Source\PSoC4/ISR_1.c **** /* Declared in startup, used to set unused interrupts to. */
  35:.\Generated_Source\PSoC4/ISR_1.c **** CY_ISR_PROTO(IntDefaultHandler);
  36:.\Generated_Source\PSoC4/ISR_1.c **** 
  37:.\Generated_Source\PSoC4/ISR_1.c **** 
  38:.\Generated_Source\PSoC4/ISR_1.c **** /*******************************************************************************
  39:.\Generated_Source\PSoC4/ISR_1.c **** * Function Name: ISR_1_Start
  40:.\Generated_Source\PSoC4/ISR_1.c **** ********************************************************************************
  41:.\Generated_Source\PSoC4/ISR_1.c **** *
  42:.\Generated_Source\PSoC4/ISR_1.c **** * Summary:
  43:.\Generated_Source\PSoC4/ISR_1.c **** *  Set up the interrupt and enable it. This function disables the interrupt, 
  44:.\Generated_Source\PSoC4/ISR_1.c **** *  sets the default interrupt vector, sets the priority from the value in the
  45:.\Generated_Source\PSoC4/ISR_1.c **** *  Design Wide Resources Interrupt Editor, then enables the interrupt to the 
  46:.\Generated_Source\PSoC4/ISR_1.c **** *  interrupt controller.
  47:.\Generated_Source\PSoC4/ISR_1.c **** *
  48:.\Generated_Source\PSoC4/ISR_1.c **** * Parameters:  
  49:.\Generated_Source\PSoC4/ISR_1.c **** *   None
  50:.\Generated_Source\PSoC4/ISR_1.c **** *
  51:.\Generated_Source\PSoC4/ISR_1.c **** * Return:
  52:.\Generated_Source\PSoC4/ISR_1.c **** *   None
  53:.\Generated_Source\PSoC4/ISR_1.c **** *
  54:.\Generated_Source\PSoC4/ISR_1.c **** *******************************************************************************/
  55:.\Generated_Source\PSoC4/ISR_1.c **** void ISR_1_Start(void)
  56:.\Generated_Source\PSoC4/ISR_1.c **** {
  26              		.loc 1 56 0
  27              		.cfi_startproc
  28 0000 80B5     		push	{r7, lr}
  29              		.cfi_def_cfa_offset 8
  30              		.cfi_offset 7, -8
  31              		.cfi_offset 14, -4
  32 0002 00AF     		add	r7, sp, #0
  33              		.cfi_def_cfa_register 7
  57:.\Generated_Source\PSoC4/ISR_1.c ****     /* For all we know the interrupt is active. */
  58:.\Generated_Source\PSoC4/ISR_1.c ****     ISR_1_Disable();
  34              		.loc 1 58 0
  35 0004 FFF7FEFF 		bl	ISR_1_Disable
  59:.\Generated_Source\PSoC4/ISR_1.c **** 
  60:.\Generated_Source\PSoC4/ISR_1.c ****     /* Set the ISR to point to the ISR_1 Interrupt. */
  61:.\Generated_Source\PSoC4/ISR_1.c ****     ISR_1_SetVector(&ISR_1_Interrupt);
  36              		.loc 1 61 0
  37 0008 054B     		ldr	r3, .L2
  38 000a 181C     		mov	r0, r3
  39 000c FFF7FEFF 		bl	ISR_1_SetVector
  62:.\Generated_Source\PSoC4/ISR_1.c **** 
  63:.\Generated_Source\PSoC4/ISR_1.c ****     /* Set the priority. */
  64:.\Generated_Source\PSoC4/ISR_1.c ****     ISR_1_SetPriority((uint8)ISR_1_INTC_PRIOR_NUMBER);
  40              		.loc 1 64 0
  41 0010 0320     		mov	r0, #3
  42 0012 FFF7FEFF 		bl	ISR_1_SetPriority
  65:.\Generated_Source\PSoC4/ISR_1.c **** 
  66:.\Generated_Source\PSoC4/ISR_1.c ****     /* Enable it. */
  67:.\Generated_Source\PSoC4/ISR_1.c ****     ISR_1_Enable();
  43              		.loc 1 67 0
  44 0016 FFF7FEFF 		bl	ISR_1_Enable
  68:.\Generated_Source\PSoC4/ISR_1.c **** }
  45              		.loc 1 68 0
  46 001a BD46     		mov	sp, r7
ARM GAS  C:\Users\TINYWI~1\AppData\Local\Temp\ccN3U5GB.s 			page 3


  47              		@ sp needed
  48 001c 80BD     		pop	{r7, pc}
  49              	.L3:
  50 001e C046     		.align	2
  51              	.L2:
  52 0020 00000000 		.word	ISR_1_Interrupt
  53              		.cfi_endproc
  54              	.LFE0:
  55              		.size	ISR_1_Start, .-ISR_1_Start
  56              		.section	.text.ISR_1_StartEx,"ax",%progbits
  57              		.align	2
  58              		.global	ISR_1_StartEx
  59              		.code	16
  60              		.thumb_func
  61              		.type	ISR_1_StartEx, %function
  62              	ISR_1_StartEx:
  63              	.LFB1:
  69:.\Generated_Source\PSoC4/ISR_1.c **** 
  70:.\Generated_Source\PSoC4/ISR_1.c **** 
  71:.\Generated_Source\PSoC4/ISR_1.c **** /*******************************************************************************
  72:.\Generated_Source\PSoC4/ISR_1.c **** * Function Name: ISR_1_StartEx
  73:.\Generated_Source\PSoC4/ISR_1.c **** ********************************************************************************
  74:.\Generated_Source\PSoC4/ISR_1.c **** *
  75:.\Generated_Source\PSoC4/ISR_1.c **** * Summary:
  76:.\Generated_Source\PSoC4/ISR_1.c **** *  Sets up the interrupt and enables it. This function disables the interrupt,
  77:.\Generated_Source\PSoC4/ISR_1.c **** *  sets the interrupt vector based on the address passed in, sets the priority 
  78:.\Generated_Source\PSoC4/ISR_1.c **** *  from the value in the Design Wide Resources Interrupt Editor, then enables 
  79:.\Generated_Source\PSoC4/ISR_1.c **** *  the interrupt to the interrupt controller.
  80:.\Generated_Source\PSoC4/ISR_1.c **** *  
  81:.\Generated_Source\PSoC4/ISR_1.c **** *  When defining ISR functions, the CY_ISR and CY_ISR_PROTO macros should be 
  82:.\Generated_Source\PSoC4/ISR_1.c **** *  used to provide consistent definition across compilers:
  83:.\Generated_Source\PSoC4/ISR_1.c **** *  
  84:.\Generated_Source\PSoC4/ISR_1.c **** *  Function definition example:
  85:.\Generated_Source\PSoC4/ISR_1.c **** *   CY_ISR(MyISR)
  86:.\Generated_Source\PSoC4/ISR_1.c **** *   {
  87:.\Generated_Source\PSoC4/ISR_1.c **** *   }
  88:.\Generated_Source\PSoC4/ISR_1.c **** *   Function prototype example:
  89:.\Generated_Source\PSoC4/ISR_1.c **** *   CY_ISR_PROTO(MyISR);
  90:.\Generated_Source\PSoC4/ISR_1.c **** *
  91:.\Generated_Source\PSoC4/ISR_1.c **** * Parameters:  
  92:.\Generated_Source\PSoC4/ISR_1.c **** *   address: Address of the ISR to set in the interrupt vector table.
  93:.\Generated_Source\PSoC4/ISR_1.c **** *
  94:.\Generated_Source\PSoC4/ISR_1.c **** * Return:
  95:.\Generated_Source\PSoC4/ISR_1.c **** *   None
  96:.\Generated_Source\PSoC4/ISR_1.c **** *
  97:.\Generated_Source\PSoC4/ISR_1.c **** *******************************************************************************/
  98:.\Generated_Source\PSoC4/ISR_1.c **** void ISR_1_StartEx(cyisraddress address)
  99:.\Generated_Source\PSoC4/ISR_1.c **** {
  64              		.loc 1 99 0
  65              		.cfi_startproc
  66 0000 80B5     		push	{r7, lr}
  67              		.cfi_def_cfa_offset 8
  68              		.cfi_offset 7, -8
  69              		.cfi_offset 14, -4
  70 0002 82B0     		sub	sp, sp, #8
  71              		.cfi_def_cfa_offset 16
  72 0004 00AF     		add	r7, sp, #0
ARM GAS  C:\Users\TINYWI~1\AppData\Local\Temp\ccN3U5GB.s 			page 4


  73              		.cfi_def_cfa_register 7
  74 0006 7860     		str	r0, [r7, #4]
 100:.\Generated_Source\PSoC4/ISR_1.c ****     /* For all we know the interrupt is active. */
 101:.\Generated_Source\PSoC4/ISR_1.c ****     ISR_1_Disable();
  75              		.loc 1 101 0
  76 0008 FFF7FEFF 		bl	ISR_1_Disable
 102:.\Generated_Source\PSoC4/ISR_1.c **** 
 103:.\Generated_Source\PSoC4/ISR_1.c ****     /* Set the ISR to point to the ISR_1 Interrupt. */
 104:.\Generated_Source\PSoC4/ISR_1.c ****     ISR_1_SetVector(address);
  77              		.loc 1 104 0
  78 000c 7B68     		ldr	r3, [r7, #4]
  79 000e 181C     		mov	r0, r3
  80 0010 FFF7FEFF 		bl	ISR_1_SetVector
 105:.\Generated_Source\PSoC4/ISR_1.c **** 
 106:.\Generated_Source\PSoC4/ISR_1.c ****     /* Set the priority. */
 107:.\Generated_Source\PSoC4/ISR_1.c ****     ISR_1_SetPriority((uint8)ISR_1_INTC_PRIOR_NUMBER);
  81              		.loc 1 107 0
  82 0014 0320     		mov	r0, #3
  83 0016 FFF7FEFF 		bl	ISR_1_SetPriority
 108:.\Generated_Source\PSoC4/ISR_1.c **** 
 109:.\Generated_Source\PSoC4/ISR_1.c ****     /* Enable it. */
 110:.\Generated_Source\PSoC4/ISR_1.c ****     ISR_1_Enable();
  84              		.loc 1 110 0
  85 001a FFF7FEFF 		bl	ISR_1_Enable
 111:.\Generated_Source\PSoC4/ISR_1.c **** }
  86              		.loc 1 111 0
  87 001e BD46     		mov	sp, r7
  88 0020 02B0     		add	sp, sp, #8
  89              		@ sp needed
  90 0022 80BD     		pop	{r7, pc}
  91              		.cfi_endproc
  92              	.LFE1:
  93              		.size	ISR_1_StartEx, .-ISR_1_StartEx
  94              		.section	.text.ISR_1_Stop,"ax",%progbits
  95              		.align	2
  96              		.global	ISR_1_Stop
  97              		.code	16
  98              		.thumb_func
  99              		.type	ISR_1_Stop, %function
 100              	ISR_1_Stop:
 101              	.LFB2:
 112:.\Generated_Source\PSoC4/ISR_1.c **** 
 113:.\Generated_Source\PSoC4/ISR_1.c **** 
 114:.\Generated_Source\PSoC4/ISR_1.c **** /*******************************************************************************
 115:.\Generated_Source\PSoC4/ISR_1.c **** * Function Name: ISR_1_Stop
 116:.\Generated_Source\PSoC4/ISR_1.c **** ********************************************************************************
 117:.\Generated_Source\PSoC4/ISR_1.c **** *
 118:.\Generated_Source\PSoC4/ISR_1.c **** * Summary:
 119:.\Generated_Source\PSoC4/ISR_1.c **** *   Disables and removes the interrupt.
 120:.\Generated_Source\PSoC4/ISR_1.c **** *
 121:.\Generated_Source\PSoC4/ISR_1.c **** * Parameters:  
 122:.\Generated_Source\PSoC4/ISR_1.c **** *   None
 123:.\Generated_Source\PSoC4/ISR_1.c **** *
 124:.\Generated_Source\PSoC4/ISR_1.c **** * Return:
 125:.\Generated_Source\PSoC4/ISR_1.c **** *   None
 126:.\Generated_Source\PSoC4/ISR_1.c **** *
 127:.\Generated_Source\PSoC4/ISR_1.c **** *******************************************************************************/
ARM GAS  C:\Users\TINYWI~1\AppData\Local\Temp\ccN3U5GB.s 			page 5


 128:.\Generated_Source\PSoC4/ISR_1.c **** void ISR_1_Stop(void)
 129:.\Generated_Source\PSoC4/ISR_1.c **** {
 102              		.loc 1 129 0
 103              		.cfi_startproc
 104 0000 80B5     		push	{r7, lr}
 105              		.cfi_def_cfa_offset 8
 106              		.cfi_offset 7, -8
 107              		.cfi_offset 14, -4
 108 0002 00AF     		add	r7, sp, #0
 109              		.cfi_def_cfa_register 7
 130:.\Generated_Source\PSoC4/ISR_1.c ****     /* Disable this interrupt. */
 131:.\Generated_Source\PSoC4/ISR_1.c ****     ISR_1_Disable();
 110              		.loc 1 131 0
 111 0004 FFF7FEFF 		bl	ISR_1_Disable
 132:.\Generated_Source\PSoC4/ISR_1.c **** 
 133:.\Generated_Source\PSoC4/ISR_1.c ****     /* Set the ISR to point to the passive one. */
 134:.\Generated_Source\PSoC4/ISR_1.c ****     ISR_1_SetVector(&IntDefaultHandler);
 112              		.loc 1 134 0
 113 0008 024B     		ldr	r3, .L6
 114 000a 181C     		mov	r0, r3
 115 000c FFF7FEFF 		bl	ISR_1_SetVector
 135:.\Generated_Source\PSoC4/ISR_1.c **** }
 116              		.loc 1 135 0
 117 0010 BD46     		mov	sp, r7
 118              		@ sp needed
 119 0012 80BD     		pop	{r7, pc}
 120              	.L7:
 121              		.align	2
 122              	.L6:
 123 0014 00000000 		.word	IntDefaultHandler
 124              		.cfi_endproc
 125              	.LFE2:
 126              		.size	ISR_1_Stop, .-ISR_1_Stop
 127              		.section	.text.ISR_1_Interrupt,"ax",%progbits
 128              		.align	2
 129              		.global	ISR_1_Interrupt
 130              		.code	16
 131              		.thumb_func
 132              		.type	ISR_1_Interrupt, %function
 133              	ISR_1_Interrupt:
 134              	.LFB3:
 136:.\Generated_Source\PSoC4/ISR_1.c **** 
 137:.\Generated_Source\PSoC4/ISR_1.c **** 
 138:.\Generated_Source\PSoC4/ISR_1.c **** /*******************************************************************************
 139:.\Generated_Source\PSoC4/ISR_1.c **** * Function Name: ISR_1_Interrupt
 140:.\Generated_Source\PSoC4/ISR_1.c **** ********************************************************************************
 141:.\Generated_Source\PSoC4/ISR_1.c **** *
 142:.\Generated_Source\PSoC4/ISR_1.c **** * Summary:
 143:.\Generated_Source\PSoC4/ISR_1.c **** *   The default Interrupt Service Routine for ISR_1.
 144:.\Generated_Source\PSoC4/ISR_1.c **** *
 145:.\Generated_Source\PSoC4/ISR_1.c **** *   Add custom code between the START and END comments to keep the next version
 146:.\Generated_Source\PSoC4/ISR_1.c **** *   of this file from over-writing your code.
 147:.\Generated_Source\PSoC4/ISR_1.c **** *
 148:.\Generated_Source\PSoC4/ISR_1.c **** *   Note You may use either the default ISR by using this API, or you may define
 149:.\Generated_Source\PSoC4/ISR_1.c **** *   your own separate ISR through ISR_StartEx().
 150:.\Generated_Source\PSoC4/ISR_1.c **** *
 151:.\Generated_Source\PSoC4/ISR_1.c **** * Parameters:  
ARM GAS  C:\Users\TINYWI~1\AppData\Local\Temp\ccN3U5GB.s 			page 6


 152:.\Generated_Source\PSoC4/ISR_1.c **** *   None
 153:.\Generated_Source\PSoC4/ISR_1.c **** *
 154:.\Generated_Source\PSoC4/ISR_1.c **** * Return:
 155:.\Generated_Source\PSoC4/ISR_1.c **** *   None
 156:.\Generated_Source\PSoC4/ISR_1.c **** *
 157:.\Generated_Source\PSoC4/ISR_1.c **** *******************************************************************************/
 158:.\Generated_Source\PSoC4/ISR_1.c **** CY_ISR(ISR_1_Interrupt)
 159:.\Generated_Source\PSoC4/ISR_1.c **** {
 135              		.loc 1 159 0
 136              		.cfi_startproc
 137 0000 80B5     		push	{r7, lr}
 138              		.cfi_def_cfa_offset 8
 139              		.cfi_offset 7, -8
 140              		.cfi_offset 14, -4
 141 0002 00AF     		add	r7, sp, #0
 142              		.cfi_def_cfa_register 7
 160:.\Generated_Source\PSoC4/ISR_1.c ****     /*  Place your Interrupt code here. */
 161:.\Generated_Source\PSoC4/ISR_1.c ****     /* `#START ISR_1_Interrupt` */
 162:.\Generated_Source\PSoC4/ISR_1.c **** 
 163:.\Generated_Source\PSoC4/ISR_1.c ****     /* `#END` */
 164:.\Generated_Source\PSoC4/ISR_1.c **** }
 143              		.loc 1 164 0
 144 0004 BD46     		mov	sp, r7
 145              		@ sp needed
 146 0006 80BD     		pop	{r7, pc}
 147              		.cfi_endproc
 148              	.LFE3:
 149              		.size	ISR_1_Interrupt, .-ISR_1_Interrupt
 150              		.section	.text.ISR_1_SetVector,"ax",%progbits
 151              		.align	2
 152              		.global	ISR_1_SetVector
 153              		.code	16
 154              		.thumb_func
 155              		.type	ISR_1_SetVector, %function
 156              	ISR_1_SetVector:
 157              	.LFB4:
 165:.\Generated_Source\PSoC4/ISR_1.c **** 
 166:.\Generated_Source\PSoC4/ISR_1.c **** 
 167:.\Generated_Source\PSoC4/ISR_1.c **** /*******************************************************************************
 168:.\Generated_Source\PSoC4/ISR_1.c **** * Function Name: ISR_1_SetVector
 169:.\Generated_Source\PSoC4/ISR_1.c **** ********************************************************************************
 170:.\Generated_Source\PSoC4/ISR_1.c **** *
 171:.\Generated_Source\PSoC4/ISR_1.c **** * Summary:
 172:.\Generated_Source\PSoC4/ISR_1.c **** *   Change the ISR vector for the Interrupt. Note calling ISR_1_Start
 173:.\Generated_Source\PSoC4/ISR_1.c **** *   will override any effect this method would have had. To set the vector 
 174:.\Generated_Source\PSoC4/ISR_1.c **** *   before the component has been started use ISR_1_StartEx instead.
 175:.\Generated_Source\PSoC4/ISR_1.c **** * 
 176:.\Generated_Source\PSoC4/ISR_1.c **** *   When defining ISR functions, the CY_ISR and CY_ISR_PROTO macros should be 
 177:.\Generated_Source\PSoC4/ISR_1.c **** *   used to provide consistent definition across compilers:
 178:.\Generated_Source\PSoC4/ISR_1.c **** *
 179:.\Generated_Source\PSoC4/ISR_1.c **** *   Function definition example:
 180:.\Generated_Source\PSoC4/ISR_1.c **** *   CY_ISR(MyISR)
 181:.\Generated_Source\PSoC4/ISR_1.c **** *   {
 182:.\Generated_Source\PSoC4/ISR_1.c **** *   }
 183:.\Generated_Source\PSoC4/ISR_1.c **** *
 184:.\Generated_Source\PSoC4/ISR_1.c **** *   Function prototype example:
 185:.\Generated_Source\PSoC4/ISR_1.c **** *     CY_ISR_PROTO(MyISR);
ARM GAS  C:\Users\TINYWI~1\AppData\Local\Temp\ccN3U5GB.s 			page 7


 186:.\Generated_Source\PSoC4/ISR_1.c **** *
 187:.\Generated_Source\PSoC4/ISR_1.c **** * Parameters:
 188:.\Generated_Source\PSoC4/ISR_1.c **** *   address: Address of the ISR to set in the interrupt vector table.
 189:.\Generated_Source\PSoC4/ISR_1.c **** *
 190:.\Generated_Source\PSoC4/ISR_1.c **** * Return:
 191:.\Generated_Source\PSoC4/ISR_1.c **** *   None
 192:.\Generated_Source\PSoC4/ISR_1.c **** *
 193:.\Generated_Source\PSoC4/ISR_1.c **** *******************************************************************************/
 194:.\Generated_Source\PSoC4/ISR_1.c **** void ISR_1_SetVector(cyisraddress address)
 195:.\Generated_Source\PSoC4/ISR_1.c **** {
 158              		.loc 1 195 0
 159              		.cfi_startproc
 160 0000 80B5     		push	{r7, lr}
 161              		.cfi_def_cfa_offset 8
 162              		.cfi_offset 7, -8
 163              		.cfi_offset 14, -4
 164 0002 82B0     		sub	sp, sp, #8
 165              		.cfi_def_cfa_offset 16
 166 0004 00AF     		add	r7, sp, #0
 167              		.cfi_def_cfa_register 7
 168 0006 7860     		str	r0, [r7, #4]
 196:.\Generated_Source\PSoC4/ISR_1.c ****     CyRamVectors[CYINT_IRQ_BASE + ISR_1__INTC_NUMBER] = address;
 169              		.loc 1 196 0
 170 0008 034A     		ldr	r2, .L10
 171 000a 8023     		mov	r3, #128
 172 000c 7968     		ldr	r1, [r7, #4]
 173 000e D150     		str	r1, [r2, r3]
 197:.\Generated_Source\PSoC4/ISR_1.c **** }
 174              		.loc 1 197 0
 175 0010 BD46     		mov	sp, r7
 176 0012 02B0     		add	sp, sp, #8
 177              		@ sp needed
 178 0014 80BD     		pop	{r7, pc}
 179              	.L11:
 180 0016 C046     		.align	2
 181              	.L10:
 182 0018 00000000 		.word	CyRamVectors
 183              		.cfi_endproc
 184              	.LFE4:
 185              		.size	ISR_1_SetVector, .-ISR_1_SetVector
 186              		.section	.text.ISR_1_GetVector,"ax",%progbits
 187              		.align	2
 188              		.global	ISR_1_GetVector
 189              		.code	16
 190              		.thumb_func
 191              		.type	ISR_1_GetVector, %function
 192              	ISR_1_GetVector:
 193              	.LFB5:
 198:.\Generated_Source\PSoC4/ISR_1.c **** 
 199:.\Generated_Source\PSoC4/ISR_1.c **** 
 200:.\Generated_Source\PSoC4/ISR_1.c **** /*******************************************************************************
 201:.\Generated_Source\PSoC4/ISR_1.c **** * Function Name: ISR_1_GetVector
 202:.\Generated_Source\PSoC4/ISR_1.c **** ********************************************************************************
 203:.\Generated_Source\PSoC4/ISR_1.c **** *
 204:.\Generated_Source\PSoC4/ISR_1.c **** * Summary:
 205:.\Generated_Source\PSoC4/ISR_1.c **** *   Gets the "address" of the current ISR vector for the Interrupt.
 206:.\Generated_Source\PSoC4/ISR_1.c **** *
ARM GAS  C:\Users\TINYWI~1\AppData\Local\Temp\ccN3U5GB.s 			page 8


 207:.\Generated_Source\PSoC4/ISR_1.c **** * Parameters:
 208:.\Generated_Source\PSoC4/ISR_1.c **** *   None
 209:.\Generated_Source\PSoC4/ISR_1.c **** *
 210:.\Generated_Source\PSoC4/ISR_1.c **** * Return:
 211:.\Generated_Source\PSoC4/ISR_1.c **** *   Address of the ISR in the interrupt vector table.
 212:.\Generated_Source\PSoC4/ISR_1.c **** *
 213:.\Generated_Source\PSoC4/ISR_1.c **** *******************************************************************************/
 214:.\Generated_Source\PSoC4/ISR_1.c **** cyisraddress ISR_1_GetVector(void)
 215:.\Generated_Source\PSoC4/ISR_1.c **** {
 194              		.loc 1 215 0
 195              		.cfi_startproc
 196 0000 80B5     		push	{r7, lr}
 197              		.cfi_def_cfa_offset 8
 198              		.cfi_offset 7, -8
 199              		.cfi_offset 14, -4
 200 0002 00AF     		add	r7, sp, #0
 201              		.cfi_def_cfa_register 7
 216:.\Generated_Source\PSoC4/ISR_1.c ****     return CyRamVectors[CYINT_IRQ_BASE + ISR_1__INTC_NUMBER];
 202              		.loc 1 216 0
 203 0004 024A     		ldr	r2, .L14
 204 0006 8023     		mov	r3, #128
 205 0008 D358     		ldr	r3, [r2, r3]
 217:.\Generated_Source\PSoC4/ISR_1.c **** }
 206              		.loc 1 217 0
 207 000a 181C     		mov	r0, r3
 208 000c BD46     		mov	sp, r7
 209              		@ sp needed
 210 000e 80BD     		pop	{r7, pc}
 211              	.L15:
 212              		.align	2
 213              	.L14:
 214 0010 00000000 		.word	CyRamVectors
 215              		.cfi_endproc
 216              	.LFE5:
 217              		.size	ISR_1_GetVector, .-ISR_1_GetVector
 218              		.section	.text.ISR_1_SetPriority,"ax",%progbits
 219              		.align	2
 220              		.global	ISR_1_SetPriority
 221              		.code	16
 222              		.thumb_func
 223              		.type	ISR_1_SetPriority, %function
 224              	ISR_1_SetPriority:
 225              	.LFB6:
 218:.\Generated_Source\PSoC4/ISR_1.c **** 
 219:.\Generated_Source\PSoC4/ISR_1.c **** 
 220:.\Generated_Source\PSoC4/ISR_1.c **** /*******************************************************************************
 221:.\Generated_Source\PSoC4/ISR_1.c **** * Function Name: ISR_1_SetPriority
 222:.\Generated_Source\PSoC4/ISR_1.c **** ********************************************************************************
 223:.\Generated_Source\PSoC4/ISR_1.c **** *
 224:.\Generated_Source\PSoC4/ISR_1.c **** * Summary:
 225:.\Generated_Source\PSoC4/ISR_1.c **** *   Sets the Priority of the Interrupt. 
 226:.\Generated_Source\PSoC4/ISR_1.c **** *
 227:.\Generated_Source\PSoC4/ISR_1.c **** *   Note calling ISR_1_Start or ISR_1_StartEx will 
 228:.\Generated_Source\PSoC4/ISR_1.c **** *   override any effect this API would have had. This API should only be called
 229:.\Generated_Source\PSoC4/ISR_1.c **** *   after ISR_1_Start or ISR_1_StartEx has been called. 
 230:.\Generated_Source\PSoC4/ISR_1.c **** *   To set the initial priority for the component, use the Design-Wide Resources
 231:.\Generated_Source\PSoC4/ISR_1.c **** *   Interrupt Editor.
ARM GAS  C:\Users\TINYWI~1\AppData\Local\Temp\ccN3U5GB.s 			page 9


 232:.\Generated_Source\PSoC4/ISR_1.c **** *
 233:.\Generated_Source\PSoC4/ISR_1.c **** *   Note This API has no effect on Non-maskable interrupt NMI).
 234:.\Generated_Source\PSoC4/ISR_1.c **** *
 235:.\Generated_Source\PSoC4/ISR_1.c **** * Parameters:
 236:.\Generated_Source\PSoC4/ISR_1.c **** *   priority: Priority of the interrupt, 0 being the highest priority
 237:.\Generated_Source\PSoC4/ISR_1.c **** *             PSoC 3 and PSoC 5LP: Priority is from 0 to 7.
 238:.\Generated_Source\PSoC4/ISR_1.c **** *             PSoC 4: Priority is from 0 to 3.
 239:.\Generated_Source\PSoC4/ISR_1.c **** *
 240:.\Generated_Source\PSoC4/ISR_1.c **** * Return:
 241:.\Generated_Source\PSoC4/ISR_1.c **** *   None
 242:.\Generated_Source\PSoC4/ISR_1.c **** *
 243:.\Generated_Source\PSoC4/ISR_1.c **** *******************************************************************************/
 244:.\Generated_Source\PSoC4/ISR_1.c **** void ISR_1_SetPriority(uint8 priority)
 245:.\Generated_Source\PSoC4/ISR_1.c **** {
 226              		.loc 1 245 0
 227              		.cfi_startproc
 228 0000 90B5     		push	{r4, r7, lr}
 229              		.cfi_def_cfa_offset 12
 230              		.cfi_offset 4, -12
 231              		.cfi_offset 7, -8
 232              		.cfi_offset 14, -4
 233 0002 85B0     		sub	sp, sp, #20
 234              		.cfi_def_cfa_offset 32
 235 0004 00AF     		add	r7, sp, #0
 236              		.cfi_def_cfa_register 7
 237 0006 021C     		mov	r2, r0
 238 0008 FB1D     		add	r3, r7, #7
 239 000a 1A70     		strb	r2, [r3]
 246:.\Generated_Source\PSoC4/ISR_1.c **** 	uint8 interruptState;
 247:.\Generated_Source\PSoC4/ISR_1.c ****     uint32 priorityOffset = ((ISR_1__INTC_NUMBER % 4u) * 8u) + 6u;
 240              		.loc 1 247 0
 241 000c 0623     		mov	r3, #6
 242 000e FB60     		str	r3, [r7, #12]
 248:.\Generated_Source\PSoC4/ISR_1.c ****     
 249:.\Generated_Source\PSoC4/ISR_1.c **** 	interruptState = CyEnterCriticalSection();
 243              		.loc 1 249 0
 244 0010 3C1C     		mov	r4, r7
 245 0012 0B34     		add	r4, r4, #11
 246 0014 FFF7FEFF 		bl	CyEnterCriticalSection
 247 0018 031C     		mov	r3, r0
 248 001a 2370     		strb	r3, [r4]
 250:.\Generated_Source\PSoC4/ISR_1.c ****     *ISR_1_INTC_PRIOR = (*ISR_1_INTC_PRIOR & (uint32)(~ISR_1__INTC_PRIOR_MASK)) |
 249              		.loc 1 250 0
 250 001c 0B4B     		ldr	r3, .L17
 251 001e 0B4A     		ldr	r2, .L17
 252 0020 1268     		ldr	r2, [r2]
 253 0022 C021     		mov	r1, #192
 254 0024 101C     		mov	r0, r2
 255 0026 8843     		bic	r0, r1
 256 0028 011C     		mov	r1, r0
 251:.\Generated_Source\PSoC4/ISR_1.c ****                                     ((uint32)priority << priorityOffset);
 257              		.loc 1 251 0
 258 002a FA1D     		add	r2, r7, #7
 259 002c 1078     		ldrb	r0, [r2]
 260 002e FA68     		ldr	r2, [r7, #12]
 261 0030 041C     		mov	r4, r0
 262 0032 9440     		lsl	r4, r4, r2
ARM GAS  C:\Users\TINYWI~1\AppData\Local\Temp\ccN3U5GB.s 			page 10


 263 0034 221C     		mov	r2, r4
 250:.\Generated_Source\PSoC4/ISR_1.c ****     *ISR_1_INTC_PRIOR = (*ISR_1_INTC_PRIOR & (uint32)(~ISR_1__INTC_PRIOR_MASK)) |
 264              		.loc 1 250 0
 265 0036 0A43     		orr	r2, r1
 266 0038 1A60     		str	r2, [r3]
 252:.\Generated_Source\PSoC4/ISR_1.c **** 	CyExitCriticalSection(interruptState);
 267              		.loc 1 252 0
 268 003a 3B1C     		mov	r3, r7
 269 003c 0B33     		add	r3, r3, #11
 270 003e 1B78     		ldrb	r3, [r3]
 271 0040 181C     		mov	r0, r3
 272 0042 FFF7FEFF 		bl	CyExitCriticalSection
 253:.\Generated_Source\PSoC4/ISR_1.c **** }
 273              		.loc 1 253 0
 274 0046 BD46     		mov	sp, r7
 275 0048 05B0     		add	sp, sp, #20
 276              		@ sp needed
 277 004a 90BD     		pop	{r4, r7, pc}
 278              	.L18:
 279              		.align	2
 280              	.L17:
 281 004c 10E400E0 		.word	-536812528
 282              		.cfi_endproc
 283              	.LFE6:
 284              		.size	ISR_1_SetPriority, .-ISR_1_SetPriority
 285              		.section	.text.ISR_1_GetPriority,"ax",%progbits
 286              		.align	2
 287              		.global	ISR_1_GetPriority
 288              		.code	16
 289              		.thumb_func
 290              		.type	ISR_1_GetPriority, %function
 291              	ISR_1_GetPriority:
 292              	.LFB7:
 254:.\Generated_Source\PSoC4/ISR_1.c **** 
 255:.\Generated_Source\PSoC4/ISR_1.c **** 
 256:.\Generated_Source\PSoC4/ISR_1.c **** /*******************************************************************************
 257:.\Generated_Source\PSoC4/ISR_1.c **** * Function Name: ISR_1_GetPriority
 258:.\Generated_Source\PSoC4/ISR_1.c **** ********************************************************************************
 259:.\Generated_Source\PSoC4/ISR_1.c **** *
 260:.\Generated_Source\PSoC4/ISR_1.c **** * Summary:
 261:.\Generated_Source\PSoC4/ISR_1.c **** *   Gets the Priority of the Interrupt.
 262:.\Generated_Source\PSoC4/ISR_1.c **** *
 263:.\Generated_Source\PSoC4/ISR_1.c **** * Parameters:
 264:.\Generated_Source\PSoC4/ISR_1.c **** *   None
 265:.\Generated_Source\PSoC4/ISR_1.c **** *
 266:.\Generated_Source\PSoC4/ISR_1.c **** * Return:
 267:.\Generated_Source\PSoC4/ISR_1.c **** *   Priority of the interrupt, 0 being the highest priority
 268:.\Generated_Source\PSoC4/ISR_1.c **** *    PSoC 3 and PSoC 5LP: Priority is from 0 to 7.
 269:.\Generated_Source\PSoC4/ISR_1.c **** *    PSoC 4: Priority is from 0 to 3.
 270:.\Generated_Source\PSoC4/ISR_1.c **** *
 271:.\Generated_Source\PSoC4/ISR_1.c **** *******************************************************************************/
 272:.\Generated_Source\PSoC4/ISR_1.c **** uint8 ISR_1_GetPriority(void)
 273:.\Generated_Source\PSoC4/ISR_1.c **** {
 293              		.loc 1 273 0
 294              		.cfi_startproc
 295 0000 80B5     		push	{r7, lr}
 296              		.cfi_def_cfa_offset 8
ARM GAS  C:\Users\TINYWI~1\AppData\Local\Temp\ccN3U5GB.s 			page 11


 297              		.cfi_offset 7, -8
 298              		.cfi_offset 14, -4
 299 0002 82B0     		sub	sp, sp, #8
 300              		.cfi_def_cfa_offset 16
 301 0004 00AF     		add	r7, sp, #0
 302              		.cfi_def_cfa_register 7
 274:.\Generated_Source\PSoC4/ISR_1.c ****     uint32 priority;
 275:.\Generated_Source\PSoC4/ISR_1.c **** 	uint32 priorityOffset = ((ISR_1__INTC_NUMBER % 4u) * 8u) + 6u;
 303              		.loc 1 275 0
 304 0006 0623     		mov	r3, #6
 305 0008 7B60     		str	r3, [r7, #4]
 276:.\Generated_Source\PSoC4/ISR_1.c **** 
 277:.\Generated_Source\PSoC4/ISR_1.c ****     priority = (*ISR_1_INTC_PRIOR & ISR_1__INTC_PRIOR_MASK) >> priorityOffset;
 306              		.loc 1 277 0
 307 000a 074B     		ldr	r3, .L21
 308 000c 1A68     		ldr	r2, [r3]
 309 000e C023     		mov	r3, #192
 310 0010 1A40     		and	r2, r3
 311 0012 7B68     		ldr	r3, [r7, #4]
 312 0014 111C     		mov	r1, r2
 313 0016 D940     		lsr	r1, r1, r3
 314 0018 0B1C     		mov	r3, r1
 315 001a 3B60     		str	r3, [r7]
 278:.\Generated_Source\PSoC4/ISR_1.c **** 
 279:.\Generated_Source\PSoC4/ISR_1.c ****     return (uint8)priority;
 316              		.loc 1 279 0
 317 001c 3B68     		ldr	r3, [r7]
 318 001e DBB2     		uxtb	r3, r3
 280:.\Generated_Source\PSoC4/ISR_1.c **** }
 319              		.loc 1 280 0
 320 0020 181C     		mov	r0, r3
 321 0022 BD46     		mov	sp, r7
 322 0024 02B0     		add	sp, sp, #8
 323              		@ sp needed
 324 0026 80BD     		pop	{r7, pc}
 325              	.L22:
 326              		.align	2
 327              	.L21:
 328 0028 10E400E0 		.word	-536812528
 329              		.cfi_endproc
 330              	.LFE7:
 331              		.size	ISR_1_GetPriority, .-ISR_1_GetPriority
 332              		.section	.text.ISR_1_Enable,"ax",%progbits
 333              		.align	2
 334              		.global	ISR_1_Enable
 335              		.code	16
 336              		.thumb_func
 337              		.type	ISR_1_Enable, %function
 338              	ISR_1_Enable:
 339              	.LFB8:
 281:.\Generated_Source\PSoC4/ISR_1.c **** 
 282:.\Generated_Source\PSoC4/ISR_1.c **** 
 283:.\Generated_Source\PSoC4/ISR_1.c **** /*******************************************************************************
 284:.\Generated_Source\PSoC4/ISR_1.c **** * Function Name: ISR_1_Enable
 285:.\Generated_Source\PSoC4/ISR_1.c **** ********************************************************************************
 286:.\Generated_Source\PSoC4/ISR_1.c **** *
 287:.\Generated_Source\PSoC4/ISR_1.c **** * Summary:
ARM GAS  C:\Users\TINYWI~1\AppData\Local\Temp\ccN3U5GB.s 			page 12


 288:.\Generated_Source\PSoC4/ISR_1.c **** *   Enables the interrupt to the interrupt controller. Do not call this function
 289:.\Generated_Source\PSoC4/ISR_1.c **** *   unless ISR_Start() has been called or the functionality of the ISR_Start() 
 290:.\Generated_Source\PSoC4/ISR_1.c **** *   function, which sets the vector and the priority, has been called.
 291:.\Generated_Source\PSoC4/ISR_1.c **** *
 292:.\Generated_Source\PSoC4/ISR_1.c **** * Parameters:
 293:.\Generated_Source\PSoC4/ISR_1.c **** *   None
 294:.\Generated_Source\PSoC4/ISR_1.c **** *
 295:.\Generated_Source\PSoC4/ISR_1.c **** * Return:
 296:.\Generated_Source\PSoC4/ISR_1.c **** *   None
 297:.\Generated_Source\PSoC4/ISR_1.c **** *
 298:.\Generated_Source\PSoC4/ISR_1.c **** *******************************************************************************/
 299:.\Generated_Source\PSoC4/ISR_1.c **** void ISR_1_Enable(void)
 300:.\Generated_Source\PSoC4/ISR_1.c **** {
 340              		.loc 1 300 0
 341              		.cfi_startproc
 342 0000 80B5     		push	{r7, lr}
 343              		.cfi_def_cfa_offset 8
 344              		.cfi_offset 7, -8
 345              		.cfi_offset 14, -4
 346 0002 00AF     		add	r7, sp, #0
 347              		.cfi_def_cfa_register 7
 301:.\Generated_Source\PSoC4/ISR_1.c ****     /* Enable the general interrupt. */
 302:.\Generated_Source\PSoC4/ISR_1.c ****     *ISR_1_INTC_SET_EN = ISR_1__INTC_MASK;
 348              		.loc 1 302 0
 349 0004 024B     		ldr	r3, .L24
 350 0006 8022     		mov	r2, #128
 351 0008 5202     		lsl	r2, r2, #9
 352 000a 1A60     		str	r2, [r3]
 303:.\Generated_Source\PSoC4/ISR_1.c **** }
 353              		.loc 1 303 0
 354 000c BD46     		mov	sp, r7
 355              		@ sp needed
 356 000e 80BD     		pop	{r7, pc}
 357              	.L25:
 358              		.align	2
 359              	.L24:
 360 0010 00E100E0 		.word	-536813312
 361              		.cfi_endproc
 362              	.LFE8:
 363              		.size	ISR_1_Enable, .-ISR_1_Enable
 364              		.section	.text.ISR_1_GetState,"ax",%progbits
 365              		.align	2
 366              		.global	ISR_1_GetState
 367              		.code	16
 368              		.thumb_func
 369              		.type	ISR_1_GetState, %function
 370              	ISR_1_GetState:
 371              	.LFB9:
 304:.\Generated_Source\PSoC4/ISR_1.c **** 
 305:.\Generated_Source\PSoC4/ISR_1.c **** 
 306:.\Generated_Source\PSoC4/ISR_1.c **** /*******************************************************************************
 307:.\Generated_Source\PSoC4/ISR_1.c **** * Function Name: ISR_1_GetState
 308:.\Generated_Source\PSoC4/ISR_1.c **** ********************************************************************************
 309:.\Generated_Source\PSoC4/ISR_1.c **** *
 310:.\Generated_Source\PSoC4/ISR_1.c **** * Summary:
 311:.\Generated_Source\PSoC4/ISR_1.c **** *   Gets the state (enabled, disabled) of the Interrupt.
 312:.\Generated_Source\PSoC4/ISR_1.c **** *
ARM GAS  C:\Users\TINYWI~1\AppData\Local\Temp\ccN3U5GB.s 			page 13


 313:.\Generated_Source\PSoC4/ISR_1.c **** * Parameters:
 314:.\Generated_Source\PSoC4/ISR_1.c **** *   None
 315:.\Generated_Source\PSoC4/ISR_1.c **** *
 316:.\Generated_Source\PSoC4/ISR_1.c **** * Return:
 317:.\Generated_Source\PSoC4/ISR_1.c **** *   1 if enabled, 0 if disabled.
 318:.\Generated_Source\PSoC4/ISR_1.c **** *
 319:.\Generated_Source\PSoC4/ISR_1.c **** *******************************************************************************/
 320:.\Generated_Source\PSoC4/ISR_1.c **** uint8 ISR_1_GetState(void)
 321:.\Generated_Source\PSoC4/ISR_1.c **** {
 372              		.loc 1 321 0
 373              		.cfi_startproc
 374 0000 80B5     		push	{r7, lr}
 375              		.cfi_def_cfa_offset 8
 376              		.cfi_offset 7, -8
 377              		.cfi_offset 14, -4
 378 0002 00AF     		add	r7, sp, #0
 379              		.cfi_def_cfa_register 7
 322:.\Generated_Source\PSoC4/ISR_1.c ****     /* Get the state of the general interrupt. */
 323:.\Generated_Source\PSoC4/ISR_1.c ****     return ((*ISR_1_INTC_SET_EN & (uint32)ISR_1__INTC_MASK) != 0u) ? 1u:0u;
 380              		.loc 1 323 0
 381 0004 054B     		ldr	r3, .L30
 382 0006 1A68     		ldr	r2, [r3]
 383 0008 8023     		mov	r3, #128
 384 000a 5B02     		lsl	r3, r3, #9
 385 000c 1340     		and	r3, r2
 386 000e 01D0     		beq	.L27
 387              		.loc 1 323 0 is_stmt 0 discriminator 1
 388 0010 0123     		mov	r3, #1
 389 0012 00E0     		b	.L28
 390              	.L27:
 391              		.loc 1 323 0 discriminator 2
 392 0014 0023     		mov	r3, #0
 393              	.L28:
 324:.\Generated_Source\PSoC4/ISR_1.c **** }
 394              		.loc 1 324 0 is_stmt 1 discriminator 3
 395 0016 181C     		mov	r0, r3
 396 0018 BD46     		mov	sp, r7
 397              		@ sp needed
 398 001a 80BD     		pop	{r7, pc}
 399              	.L31:
 400              		.align	2
 401              	.L30:
 402 001c 00E100E0 		.word	-536813312
 403              		.cfi_endproc
 404              	.LFE9:
 405              		.size	ISR_1_GetState, .-ISR_1_GetState
 406              		.section	.text.ISR_1_Disable,"ax",%progbits
 407              		.align	2
 408              		.global	ISR_1_Disable
 409              		.code	16
 410              		.thumb_func
 411              		.type	ISR_1_Disable, %function
 412              	ISR_1_Disable:
 413              	.LFB10:
 325:.\Generated_Source\PSoC4/ISR_1.c **** 
 326:.\Generated_Source\PSoC4/ISR_1.c **** 
 327:.\Generated_Source\PSoC4/ISR_1.c **** /*******************************************************************************
ARM GAS  C:\Users\TINYWI~1\AppData\Local\Temp\ccN3U5GB.s 			page 14


 328:.\Generated_Source\PSoC4/ISR_1.c **** * Function Name: ISR_1_Disable
 329:.\Generated_Source\PSoC4/ISR_1.c **** ********************************************************************************
 330:.\Generated_Source\PSoC4/ISR_1.c **** *
 331:.\Generated_Source\PSoC4/ISR_1.c **** * Summary:
 332:.\Generated_Source\PSoC4/ISR_1.c **** *   Disables the Interrupt in the interrupt controller.
 333:.\Generated_Source\PSoC4/ISR_1.c **** *
 334:.\Generated_Source\PSoC4/ISR_1.c **** * Parameters:
 335:.\Generated_Source\PSoC4/ISR_1.c **** *   None
 336:.\Generated_Source\PSoC4/ISR_1.c **** *
 337:.\Generated_Source\PSoC4/ISR_1.c **** * Return:
 338:.\Generated_Source\PSoC4/ISR_1.c **** *   None
 339:.\Generated_Source\PSoC4/ISR_1.c **** *
 340:.\Generated_Source\PSoC4/ISR_1.c **** *******************************************************************************/
 341:.\Generated_Source\PSoC4/ISR_1.c **** void ISR_1_Disable(void)
 342:.\Generated_Source\PSoC4/ISR_1.c **** {
 414              		.loc 1 342 0
 415              		.cfi_startproc
 416 0000 80B5     		push	{r7, lr}
 417              		.cfi_def_cfa_offset 8
 418              		.cfi_offset 7, -8
 419              		.cfi_offset 14, -4
 420 0002 00AF     		add	r7, sp, #0
 421              		.cfi_def_cfa_register 7
 343:.\Generated_Source\PSoC4/ISR_1.c ****     /* Disable the general interrupt. */
 344:.\Generated_Source\PSoC4/ISR_1.c ****     *ISR_1_INTC_CLR_EN = ISR_1__INTC_MASK;
 422              		.loc 1 344 0
 423 0004 024B     		ldr	r3, .L33
 424 0006 8022     		mov	r2, #128
 425 0008 5202     		lsl	r2, r2, #9
 426 000a 1A60     		str	r2, [r3]
 345:.\Generated_Source\PSoC4/ISR_1.c **** }
 427              		.loc 1 345 0
 428 000c BD46     		mov	sp, r7
 429              		@ sp needed
 430 000e 80BD     		pop	{r7, pc}
 431              	.L34:
 432              		.align	2
 433              	.L33:
 434 0010 80E100E0 		.word	-536813184
 435              		.cfi_endproc
 436              	.LFE10:
 437              		.size	ISR_1_Disable, .-ISR_1_Disable
 438              		.section	.text.ISR_1_SetPending,"ax",%progbits
 439              		.align	2
 440              		.global	ISR_1_SetPending
 441              		.code	16
 442              		.thumb_func
 443              		.type	ISR_1_SetPending, %function
 444              	ISR_1_SetPending:
 445              	.LFB11:
 346:.\Generated_Source\PSoC4/ISR_1.c **** 
 347:.\Generated_Source\PSoC4/ISR_1.c **** 
 348:.\Generated_Source\PSoC4/ISR_1.c **** /*******************************************************************************
 349:.\Generated_Source\PSoC4/ISR_1.c **** * Function Name: ISR_1_SetPending
 350:.\Generated_Source\PSoC4/ISR_1.c **** ********************************************************************************
 351:.\Generated_Source\PSoC4/ISR_1.c **** *
 352:.\Generated_Source\PSoC4/ISR_1.c **** * Summary:
ARM GAS  C:\Users\TINYWI~1\AppData\Local\Temp\ccN3U5GB.s 			page 15


 353:.\Generated_Source\PSoC4/ISR_1.c **** *   Causes the Interrupt to enter the pending state, a software method of
 354:.\Generated_Source\PSoC4/ISR_1.c **** *   generating the interrupt.
 355:.\Generated_Source\PSoC4/ISR_1.c **** *
 356:.\Generated_Source\PSoC4/ISR_1.c **** * Parameters:
 357:.\Generated_Source\PSoC4/ISR_1.c **** *   None
 358:.\Generated_Source\PSoC4/ISR_1.c **** *
 359:.\Generated_Source\PSoC4/ISR_1.c **** * Return:
 360:.\Generated_Source\PSoC4/ISR_1.c **** *   None
 361:.\Generated_Source\PSoC4/ISR_1.c **** *
 362:.\Generated_Source\PSoC4/ISR_1.c **** * Side Effects:
 363:.\Generated_Source\PSoC4/ISR_1.c **** *   If interrupts are enabled and the interrupt is set up properly, the ISR is
 364:.\Generated_Source\PSoC4/ISR_1.c **** *   entered (depending on the priority of this interrupt and other pending 
 365:.\Generated_Source\PSoC4/ISR_1.c **** *   interrupts).
 366:.\Generated_Source\PSoC4/ISR_1.c **** *
 367:.\Generated_Source\PSoC4/ISR_1.c **** *******************************************************************************/
 368:.\Generated_Source\PSoC4/ISR_1.c **** void ISR_1_SetPending(void)
 369:.\Generated_Source\PSoC4/ISR_1.c **** {
 446              		.loc 1 369 0
 447              		.cfi_startproc
 448 0000 80B5     		push	{r7, lr}
 449              		.cfi_def_cfa_offset 8
 450              		.cfi_offset 7, -8
 451              		.cfi_offset 14, -4
 452 0002 00AF     		add	r7, sp, #0
 453              		.cfi_def_cfa_register 7
 370:.\Generated_Source\PSoC4/ISR_1.c ****     *ISR_1_INTC_SET_PD = ISR_1__INTC_MASK;
 454              		.loc 1 370 0
 455 0004 024B     		ldr	r3, .L36
 456 0006 8022     		mov	r2, #128
 457 0008 5202     		lsl	r2, r2, #9
 458 000a 1A60     		str	r2, [r3]
 371:.\Generated_Source\PSoC4/ISR_1.c **** }
 459              		.loc 1 371 0
 460 000c BD46     		mov	sp, r7
 461              		@ sp needed
 462 000e 80BD     		pop	{r7, pc}
 463              	.L37:
 464              		.align	2
 465              	.L36:
 466 0010 00E200E0 		.word	-536813056
 467              		.cfi_endproc
 468              	.LFE11:
 469              		.size	ISR_1_SetPending, .-ISR_1_SetPending
 470              		.section	.text.ISR_1_ClearPending,"ax",%progbits
 471              		.align	2
 472              		.global	ISR_1_ClearPending
 473              		.code	16
 474              		.thumb_func
 475              		.type	ISR_1_ClearPending, %function
 476              	ISR_1_ClearPending:
 477              	.LFB12:
 372:.\Generated_Source\PSoC4/ISR_1.c **** 
 373:.\Generated_Source\PSoC4/ISR_1.c **** 
 374:.\Generated_Source\PSoC4/ISR_1.c **** /*******************************************************************************
 375:.\Generated_Source\PSoC4/ISR_1.c **** * Function Name: ISR_1_ClearPending
 376:.\Generated_Source\PSoC4/ISR_1.c **** ********************************************************************************
 377:.\Generated_Source\PSoC4/ISR_1.c **** *
ARM GAS  C:\Users\TINYWI~1\AppData\Local\Temp\ccN3U5GB.s 			page 16


 378:.\Generated_Source\PSoC4/ISR_1.c **** * Summary:
 379:.\Generated_Source\PSoC4/ISR_1.c **** *   Clears a pending interrupt in the interrupt controller.
 380:.\Generated_Source\PSoC4/ISR_1.c **** *
 381:.\Generated_Source\PSoC4/ISR_1.c **** *   Note Some interrupt sources are clear-on-read and require the block 
 382:.\Generated_Source\PSoC4/ISR_1.c **** *   interrupt/status register to be read/cleared with the appropriate block API 
 383:.\Generated_Source\PSoC4/ISR_1.c **** *   (GPIO, UART, and so on). Otherwise the ISR will continue to remain in 
 384:.\Generated_Source\PSoC4/ISR_1.c **** *   pending state even though the interrupt itself is cleared using this API.
 385:.\Generated_Source\PSoC4/ISR_1.c **** *
 386:.\Generated_Source\PSoC4/ISR_1.c **** * Parameters:
 387:.\Generated_Source\PSoC4/ISR_1.c **** *   None
 388:.\Generated_Source\PSoC4/ISR_1.c **** *
 389:.\Generated_Source\PSoC4/ISR_1.c **** * Return:
 390:.\Generated_Source\PSoC4/ISR_1.c **** *   None
 391:.\Generated_Source\PSoC4/ISR_1.c **** *
 392:.\Generated_Source\PSoC4/ISR_1.c **** *******************************************************************************/
 393:.\Generated_Source\PSoC4/ISR_1.c **** void ISR_1_ClearPending(void)
 394:.\Generated_Source\PSoC4/ISR_1.c **** {
 478              		.loc 1 394 0
 479              		.cfi_startproc
 480 0000 80B5     		push	{r7, lr}
 481              		.cfi_def_cfa_offset 8
 482              		.cfi_offset 7, -8
 483              		.cfi_offset 14, -4
 484 0002 00AF     		add	r7, sp, #0
 485              		.cfi_def_cfa_register 7
 395:.\Generated_Source\PSoC4/ISR_1.c ****     *ISR_1_INTC_CLR_PD = ISR_1__INTC_MASK;
 486              		.loc 1 395 0
 487 0004 024B     		ldr	r3, .L39
 488 0006 8022     		mov	r2, #128
 489 0008 5202     		lsl	r2, r2, #9
 490 000a 1A60     		str	r2, [r3]
 396:.\Generated_Source\PSoC4/ISR_1.c **** }
 491              		.loc 1 396 0
 492 000c BD46     		mov	sp, r7
 493              		@ sp needed
 494 000e 80BD     		pop	{r7, pc}
 495              	.L40:
 496              		.align	2
 497              	.L39:
 498 0010 80E200E0 		.word	-536812928
 499              		.cfi_endproc
 500              	.LFE12:
 501              		.size	ISR_1_ClearPending, .-ISR_1_ClearPending
 502              		.text
 503              	.Letext0:
 504              		.file 2 "Generated_Source\\PSoC4/cytypes.h"