ARM GAS  C:\Users\IEUser\AppData\Local\Temp\cc62fZXh.s 			page 1


   1              		.cpu cortex-m0
   2              		.fpu softvfp
   3              		.eabi_attribute 20, 1
   4              		.eabi_attribute 21, 1
   5              		.eabi_attribute 23, 3
   6              		.eabi_attribute 24, 1
   7              		.eabi_attribute 25, 1
   8              		.eabi_attribute 26, 1
   9              		.eabi_attribute 30, 6
  10              		.eabi_attribute 34, 0
  11              		.eabi_attribute 18, 4
  12              		.code	16
  13              		.file	"main.c"
  14              		.text
  15              	.Ltext0:
  16              		.cfi_sections	.debug_frame
  17              		.global	state
  18              		.data
  19              		.align	2
  20              		.type	state, %object
  21              		.size	state, 4
  22              	state:
  23 0000 01000000 		.word	1
  24              		.comm	curPos,2,2
  25              		.comm	oldPos,2,2
  26              		.section	.rodata
  27              		.align	2
  28              	.LC0:
  29 0000 380A     		.short	2616
  30 0002 0100     		.short	1
  31 0004 790B     		.short	2937
  32 0006 0100     		.short	1
  33 0008 E00C     		.short	3296
  34 000a 0100     		.short	1
  35 000c A40D     		.short	3492
  36 000e 0100     		.short	1
  37 0010 500F     		.short	3920
  38 0012 0100     		.short	1
  39 0014 3011     		.short	4400
  40 0016 0100     		.short	1
  41 0018 4B13     		.short	4939
  42 001a 0100     		.short	1
  43 001c 7114     		.short	5233
  44 001e 0100     		.short	1
  45              		.section	.text.main,"ax",%progbits
  46              		.align	2
  47              		.global	main
  48              		.code	16
  49              		.thumb_func
  50              		.type	main, %function
  51              	main:
  52              	.LFB33:
  53              		.file 1 ".\\main.c"
   1:.\main.c      **** /* ========================================
   2:.\main.c      ****  *
   3:.\main.c      ****  * Copyright YOUR COMPANY, THE YEAR
   4:.\main.c      ****  * All Rights Reserved
ARM GAS  C:\Users\IEUser\AppData\Local\Temp\cc62fZXh.s 			page 2


   5:.\main.c      ****  * UNPUBLISHED, LICENSED SOFTWARE.
   6:.\main.c      ****  *
   7:.\main.c      ****  * CONFIDENTIAL AND PROPRIETARY INFORMATION
   8:.\main.c      ****  * WHICH IS THE PROPERTY OF your company.
   9:.\main.c      ****  *
  10:.\main.c      ****  * ========================================
  11:.\main.c      **** */
  12:.\main.c      **** #include <project.h>
  13:.\main.c      **** #include "piezoelectric.h"
  14:.\main.c      **** #include "tones.h"
  15:.\main.c      **** #include "notes.h"
  16:.\main.c      **** #include "state.h"
  17:.\main.c      **** 
  18:.\main.c      **** int state = STATE_READY;
  19:.\main.c      **** 
  20:.\main.c      **** void cap_sense_update_volume(void);
  21:.\main.c      **** uint16 curPos, oldPos;
  22:.\main.c      **** 
  23:.\main.c      **** int main()
  24:.\main.c      **** {
  54              		.loc 1 24 0
  55              		.cfi_startproc
  56 0000 80B5     		push	{r7, lr}
  57              		.cfi_def_cfa_offset 8
  58              		.cfi_offset 7, -8
  59              		.cfi_offset 14, -4
  60 0002 8CB0     		sub	sp, sp, #48
  61              		.cfi_def_cfa_offset 56
  62 0004 00AF     		add	r7, sp, #0
  63              		.cfi_def_cfa_register 7
  25:.\main.c      ****     /* Place your initialization/startup code here (e.g. MyInst_Start()) */
  26:.\main.c      ****     PWM_1_Start();
  64              		.loc 1 26 0
  65 0006 FFF7FEFF 		bl	PWM_1_Start
  27:.\main.c      ****     
  28:.\main.c      ****     CapSense_Start();	
  66              		.loc 1 28 0
  67 000a FFF7FEFF 		bl	CapSense_Start
  29:.\main.c      **** 
  30:.\main.c      ****     /* Initialize baselines */ 
  31:.\main.c      ****     CapSense_InitializeAllBaselines();
  68              		.loc 1 31 0
  69 000e FFF7FEFF 		bl	CapSense_InitializeAllBaselines
  32:.\main.c      **** 
  33:.\main.c      ****     piezo_tempo(100);
  70              		.loc 1 33 0
  71 0012 6420     		mov	r0, #100
  72 0014 FFF7FEFF 		bl	piezo_tempo
  34:.\main.c      ****        
  35:.\main.c      ****     uint16 melody_simple[] = {
  73              		.loc 1 35 0
  74 0018 3A1C     		mov	r2, r7
  75 001a 184B     		ldr	r3, .L4
  76 001c 111C     		mov	r1, r2
  77 001e 1A1C     		mov	r2, r3
  78 0020 2023     		mov	r3, #32
  79 0022 081C     		mov	r0, r1
ARM GAS  C:\Users\IEUser\AppData\Local\Temp\cc62fZXh.s 			page 3


  80 0024 111C     		mov	r1, r2
  81 0026 1A1C     		mov	r2, r3
  82 0028 FFF7FEFF 		bl	memcpy
  36:.\main.c      ****         C4, WHOLE,      D4, WHOLE,
  37:.\main.c      ****         E4, WHOLE,      F4, WHOLE,
  38:.\main.c      ****         G4, WHOLE,      A4, WHOLE,
  39:.\main.c      ****         B4, WHOLE,      C5, WHOLE
  40:.\main.c      ****     };
  41:.\main.c      ****     
  42:.\main.c      ****     //piezo_melody(melody_simple, 16);
  43:.\main.c      ****     
  44:.\main.c      ****     uint16* tune;
  45:.\main.c      ****     int tune_counter = 0;
  83              		.loc 1 45 0
  84 002c 0023     		mov	r3, #0
  85 002e FB62     		str	r3, [r7, #44]
  46:.\main.c      ****     
  47:.\main.c      ****     int note, tone;
  48:.\main.c      **** 
  49:.\main.c      ****     // CHANGE THIS FOR NEW TUNE
  50:.\main.c      ****     tune = melody_simple;
  86              		.loc 1 50 0
  87 0030 3B1C     		mov	r3, r7
  88 0032 BB62     		str	r3, [r7, #40]
  51:.\main.c      ****     
  52:.\main.c      ****     CyGlobalIntEnable; /* Uncomment this line to enable global interrupts. */
  89              		.loc 1 52 0
  90              	@ 52 ".\main.c" 1
  91 0034 62B6     		CPSIE   i
  92              	@ 0 "" 2
  93              		.code	16
  94              	.L3:
  53:.\main.c      ****     for(;;)
  54:.\main.c      ****     {
  55:.\main.c      ****         /* Place your application code here. */
  56:.\main.c      ****         
  57:.\main.c      ****         cap_sense_update_volume();
  95              		.loc 1 57 0
  96 0036 FFF7FEFF 		bl	cap_sense_update_volume
  58:.\main.c      ****         
  59:.\main.c      ****         if(state == STATE_READY) {
  97              		.loc 1 59 0
  98 003a 114B     		ldr	r3, .L4+4
  99 003c 1B68     		ldr	r3, [r3]
 100 003e 012B     		cmp	r3, #1
 101 0040 1BD1     		bne	.L2
  60:.\main.c      ****             tone = tune[tune_counter++];
 102              		.loc 1 60 0
 103 0042 FB6A     		ldr	r3, [r7, #44]
 104 0044 5A1C     		add	r2, r3, #1
 105 0046 FA62     		str	r2, [r7, #44]
 106 0048 5B00     		lsl	r3, r3, #1
 107 004a BA6A     		ldr	r2, [r7, #40]
 108 004c D318     		add	r3, r2, r3
 109 004e 1B88     		ldrh	r3, [r3]
 110 0050 7B62     		str	r3, [r7, #36]
  61:.\main.c      ****             note = tune[tune_counter++];
ARM GAS  C:\Users\IEUser\AppData\Local\Temp\cc62fZXh.s 			page 4


 111              		.loc 1 61 0
 112 0052 FB6A     		ldr	r3, [r7, #44]
 113 0054 5A1C     		add	r2, r3, #1
 114 0056 FA62     		str	r2, [r7, #44]
 115 0058 5B00     		lsl	r3, r3, #1
 116 005a BA6A     		ldr	r2, [r7, #40]
 117 005c D318     		add	r3, r2, r3
 118 005e 1B88     		ldrh	r3, [r3]
 119 0060 3B62     		str	r3, [r7, #32]
  62:.\main.c      ****             
  63:.\main.c      ****             //piezo_tone(tone);
  64:.\main.c      ****             piezo_play(tone, note);
 120              		.loc 1 64 0
 121 0062 7B6A     		ldr	r3, [r7, #36]
 122 0064 9AB2     		uxth	r2, r3
 123 0066 3B6A     		ldr	r3, [r7, #32]
 124 0068 DBB2     		uxtb	r3, r3
 125 006a 101C     		mov	r0, r2
 126 006c 191C     		mov	r1, r3
 127 006e FFF7FEFF 		bl	piezo_play
  65:.\main.c      ****             state = STATE_PLAY;
 128              		.loc 1 65 0
 129 0072 034B     		ldr	r3, .L4+4
 130 0074 0222     		mov	r2, #2
 131 0076 1A60     		str	r2, [r3]
  66:.\main.c      ****         }
  67:.\main.c      ****     }
 132              		.loc 1 67 0
 133 0078 DDE7     		b	.L3
 134              	.L2:
 135 007a DCE7     		b	.L3
 136              	.L5:
 137              		.align	2
 138              	.L4:
 139 007c 00000000 		.word	.LC0
 140 0080 00000000 		.word	state
 141              		.cfi_endproc
 142              	.LFE33:
 143              		.size	main, .-main
 144              		.global	__aeabi_idiv
 145              		.section	.text.cap_sense_update_volume,"ax",%progbits
 146              		.align	2
 147              		.global	cap_sense_update_volume
 148              		.code	16
 149              		.thumb_func
 150              		.type	cap_sense_update_volume, %function
 151              	cap_sense_update_volume:
 152              	.LFB34:
  68:.\main.c      **** }
  69:.\main.c      **** 
  70:.\main.c      **** void cap_sense_update_volume(void)
  71:.\main.c      **** {
 153              		.loc 1 71 0
 154              		.cfi_startproc
 155 0000 80B5     		push	{r7, lr}
 156              		.cfi_def_cfa_offset 8
 157              		.cfi_offset 7, -8
ARM GAS  C:\Users\IEUser\AppData\Local\Temp\cc62fZXh.s 			page 5


 158              		.cfi_offset 14, -4
 159 0002 00AF     		add	r7, sp, #0
 160              		.cfi_def_cfa_register 7
  72:.\main.c      ****     /* Update all baselines */
  73:.\main.c      ****     CapSense_UpdateEnabledBaselines();
 161              		.loc 1 73 0
 162 0004 FFF7FEFF 		bl	CapSense_UpdateEnabledBaselines
  74:.\main.c      ****         
  75:.\main.c      ****    	/* Start scanning all enabled sensors */
  76:.\main.c      ****     CapSense_ScanEnabledWidgets();
 163              		.loc 1 76 0
 164 0008 FFF7FEFF 		bl	CapSense_ScanEnabledWidgets
  77:.\main.c      ****     
  78:.\main.c      ****     /* Wait for scanning to complete */
  79:.\main.c      **** 	while(CapSense_IsBusy() != 0)
 165              		.loc 1 79 0
 166 000c C046     		mov	r8, r8
 167              	.L7:
 168              		.loc 1 79 0 is_stmt 0 discriminator 1
 169 000e FFF7FEFF 		bl	CapSense_IsBusy
 170 0012 031C     		mov	r3, r0
 171 0014 002B     		cmp	r3, #0
 172 0016 FAD1     		bne	.L7
  80:.\main.c      **** 	{
  81:.\main.c      **** 		/* Loop until condition true */
  82:.\main.c      **** 	}
  83:.\main.c      ****     
  84:.\main.c      ****     /* Find Slider Position */
  85:.\main.c      ****     curPos = CapSense_GetCentroidPos(CapSense_LINEARSLIDER0__LS);    
 173              		.loc 1 85 0 is_stmt 1
 174 0018 0020     		mov	r0, #0
 175 001a FFF7FEFF 		bl	CapSense_GetCentroidPos
 176 001e 031C     		mov	r3, r0
 177 0020 1A1C     		mov	r2, r3
 178 0022 124B     		ldr	r3, .L10
 179 0024 1A80     		strh	r2, [r3]
  86:.\main.c      ****     
  87:.\main.c      ****     /* Reset position */
  88:.\main.c      ****     if(curPos == 0xFFFFu)
 180              		.loc 1 88 0
 181 0026 114B     		ldr	r3, .L10
 182 0028 1A88     		ldrh	r2, [r3]
 183 002a 114B     		ldr	r3, .L10+4
 184 002c 9A42     		cmp	r2, r3
 185 002e 02D1     		bne	.L8
  89:.\main.c      ****     {
  90:.\main.c      ****         curPos = 0u;
 186              		.loc 1 90 0
 187 0030 0E4B     		ldr	r3, .L10
 188 0032 0022     		mov	r2, #0
 189 0034 1A80     		strh	r2, [r3]
 190              	.L8:
  91:.\main.c      ****     }
  92:.\main.c      ****                 
  93:.\main.c      ****     /* Move bargraph */
  94:.\main.c      ****     if (curPos != oldPos)
 191              		.loc 1 94 0
ARM GAS  C:\Users\IEUser\AppData\Local\Temp\cc62fZXh.s 			page 6


 192 0036 0D4B     		ldr	r3, .L10
 193 0038 1A88     		ldrh	r2, [r3]
 194 003a 0E4B     		ldr	r3, .L10+8
 195 003c 1B88     		ldrh	r3, [r3]
 196 003e 9A42     		cmp	r2, r3
 197 0040 11D0     		beq	.L6
  95:.\main.c      ****     {
  96:.\main.c      ****         oldPos = curPos;
 198              		.loc 1 96 0
 199 0042 0A4B     		ldr	r3, .L10
 200 0044 1A88     		ldrh	r2, [r3]
 201 0046 0B4B     		ldr	r3, .L10+8
 202 0048 1A80     		strh	r2, [r3]
  97:.\main.c      ****         volume = curPos*MAX_SLIDER/MAX_VOLUME;       
 203              		.loc 1 97 0
 204 004a 084B     		ldr	r3, .L10
 205 004c 1B88     		ldrh	r3, [r3]
 206 004e 1A1C     		mov	r2, r3
 207 0050 131C     		mov	r3, r2
 208 0052 DB01     		lsl	r3, r3, #7
 209 0054 9B1A     		sub	r3, r3, r2
 210 0056 181C     		mov	r0, r3
 211 0058 0521     		mov	r1, #5
 212 005a FFF7FEFF 		bl	__aeabi_idiv
 213 005e 031C     		mov	r3, r0
 214 0060 1A1C     		mov	r2, r3
 215 0062 054B     		ldr	r3, .L10+12
 216 0064 1A60     		str	r2, [r3]
 217              	.L6:
  98:.\main.c      ****     }
  99:.\main.c      **** }
 218              		.loc 1 99 0
 219 0066 BD46     		mov	sp, r7
 220              		@ sp needed
 221 0068 80BD     		pop	{r7, pc}
 222              	.L11:
 223 006a C046     		.align	2
 224              	.L10:
 225 006c 00000000 		.word	curPos
 226 0070 FFFF0000 		.word	65535
 227 0074 00000000 		.word	oldPos
 228 0078 00000000 		.word	volume
 229              		.cfi_endproc
 230              	.LFE34:
 231              		.size	cap_sense_update_volume, .-cap_sense_update_volume
 232              		.text
 233              	.Letext0:
 234              		.file 2 ".\\state.h"
 235              		.file 3 "Generated_Source\\PSoC4/cytypes.h"