ARM GAS  C:\Users\TINYWI~1\AppData\Local\Temp\ccHgJHYX.s 			page 1


   1              		.cpu cortex-m0
   2              		.fpu softvfp
   3              		.eabi_attribute 20, 1
   4              		.eabi_attribute 21, 1
   5              		.eabi_attribute 23, 3
   6              		.eabi_attribute 24, 1
   7              		.eabi_attribute 25, 1
   8              		.eabi_attribute 26, 1
   9              		.eabi_attribute 30, 6
  10              		.eabi_attribute 34, 0
  11              		.eabi_attribute 18, 4
  12              		.code	16
  13              		.file	"piezoelectric.c"
  14              		.text
  15              	.Ltext0:
  16              		.cfi_sections	.debug_frame
  17              		.global	volume
  18              		.data
  19              		.type	volume, %object
  20              		.size	volume, 1
  21              	volume:
  22 0000 01       		.byte	1
  23              		.global	tempo
  24              		.type	tempo, %object
  25              		.size	tempo, 1
  26              	tempo:
  27 0001 78       		.byte	120
  28              		.global	f_clock
  29              		.section	.rodata
  30              		.align	2
  31              		.type	f_clock, %object
  32              		.size	f_clock, 4
  33              	f_clock:
  34 0000 80841E00 		.word	2000000
  35              		.global	freq_mod
  36              		.align	2
  37              		.type	freq_mod, %object
  38              		.size	freq_mod, 4
  39              	freq_mod:
  40 0004 0A000000 		.word	10
  41              		.global	current_frequency
  42              		.bss
  43              		.align	1
  44              		.type	current_frequency, %object
  45              		.size	current_frequency, 2
  46              	current_frequency:
  47 0000 0000     		.space	2
  48              		.global	__aeabi_idiv
  49              		.section	.text.piezo_tone,"ax",%progbits
  50              		.align	2
  51              		.global	piezo_tone
  52              		.code	16
  53              		.thumb_func
  54              		.type	piezo_tone, %function
  55              	piezo_tone:
  56              	.LFB33:
  57              		.file 1 ".\\piezoelectric.c"
ARM GAS  C:\Users\TINYWI~1\AppData\Local\Temp\ccHgJHYX.s 			page 2


   1:.\piezoelectric.c **** /* ========================================
   2:.\piezoelectric.c ****  *
   3:.\piezoelectric.c ****  * Copyright YOUR COMPANY, THE YEAR
   4:.\piezoelectric.c ****  * All Rights Reserved
   5:.\piezoelectric.c ****  * UNPUBLISHED, LICENSED SOFTWARE.
   6:.\piezoelectric.c ****  *
   7:.\piezoelectric.c ****  * CONFIDENTIAL AND PROPRIETARY INFORMATION
   8:.\piezoelectric.c ****  * WHICH IS THE PROPERTY OF your company.
   9:.\piezoelectric.c ****  *
  10:.\piezoelectric.c ****  * ========================================
  11:.\piezoelectric.c **** */
  12:.\piezoelectric.c **** #include <project.h>
  13:.\piezoelectric.c **** #include "cytypes.h"
  14:.\piezoelectric.c **** #include "Timer_1.h"
  15:.\piezoelectric.c **** #include "TRIGGER_TIMER.h"
  16:.\piezoelectric.c **** #include "PWM_1.h"
  17:.\piezoelectric.c **** #include "piezoelectric.h"
  18:.\piezoelectric.c **** 
  19:.\piezoelectric.c **** uint8 volume = 1;
  20:.\piezoelectric.c **** uint8 tempo = 120;
  21:.\piezoelectric.c **** int const f_clock = 2000000;
  22:.\piezoelectric.c **** int const freq_mod = 10;
  23:.\piezoelectric.c **** uint16 current_frequency = 0;
  24:.\piezoelectric.c **** 
  25:.\piezoelectric.c **** 
  26:.\piezoelectric.c **** void piezo_tone(uint16 frequency_value) 
  27:.\piezoelectric.c **** {
  58              		.loc 1 27 0
  59              		.cfi_startproc
  60 0000 80B5     		push	{r7, lr}
  61              		.cfi_def_cfa_offset 8
  62              		.cfi_offset 7, -8
  63              		.cfi_offset 14, -4
  64 0002 84B0     		sub	sp, sp, #16
  65              		.cfi_def_cfa_offset 24
  66 0004 00AF     		add	r7, sp, #0
  67              		.cfi_def_cfa_register 7
  68 0006 021C     		mov	r2, r0
  69 0008 BB1D     		add	r3, r7, #6
  70 000a 1A80     		strh	r2, [r3]
  28:.\piezoelectric.c ****     current_frequency = frequency_value;
  71              		.loc 1 28 0
  72 000c 1A4B     		ldr	r3, .L3
  73 000e BA1D     		add	r2, r7, #6
  74 0010 1288     		ldrh	r2, [r2]
  75 0012 1A80     		strh	r2, [r3]
  29:.\piezoelectric.c ****     // duty cycle ticks is a percentage of frequency based on volume
  30:.\piezoelectric.c ****     int period_ticks = f_clock * freq_mod / frequency_value;
  76              		.loc 1 30 0
  77 0014 194B     		ldr	r3, .L3+4
  78 0016 0A22     		mov	r2, #10
  79 0018 5A43     		mul	r2, r3
  80 001a BB1D     		add	r3, r7, #6
  81 001c 1B88     		ldrh	r3, [r3]
  82 001e 101C     		mov	r0, r2
  83 0020 191C     		mov	r1, r3
  84 0022 FFF7FEFF 		bl	__aeabi_idiv
ARM GAS  C:\Users\TINYWI~1\AppData\Local\Temp\ccHgJHYX.s 			page 3


  85 0026 031C     		mov	r3, r0
  86 0028 BB60     		str	r3, [r7, #8]
  31:.\piezoelectric.c ****     uint16 compare_ticks = period_ticks * volume / 100;
  87              		.loc 1 31 0
  88 002a 154B     		ldr	r3, .L3+8
  89 002c 1B78     		ldrb	r3, [r3]
  90 002e BA68     		ldr	r2, [r7, #8]
  91 0030 5343     		mul	r3, r2
  92 0032 181C     		mov	r0, r3
  93 0034 6421     		mov	r1, #100
  94 0036 FFF7FEFF 		bl	__aeabi_idiv
  95 003a 031C     		mov	r3, r0
  96 003c 1A1C     		mov	r2, r3
  97 003e 3B1C     		mov	r3, r7
  98 0040 0E33     		add	r3, r3, #14
  99 0042 1A80     		strh	r2, [r3]
  32:.\piezoelectric.c ****     
  33:.\piezoelectric.c ****     // maximum duty cycle ticks must be at least 1 lower than frequency
  34:.\piezoelectric.c ****     // to produce a vibration
  35:.\piezoelectric.c ****     if (compare_ticks == period_ticks) {
 100              		.loc 1 35 0
 101 0044 3B1C     		mov	r3, r7
 102 0046 0E33     		add	r3, r3, #14
 103 0048 1A88     		ldrh	r2, [r3]
 104 004a BB68     		ldr	r3, [r7, #8]
 105 004c 9A42     		cmp	r2, r3
 106 004e 06D1     		bne	.L2
  36:.\piezoelectric.c ****         compare_ticks--;
 107              		.loc 1 36 0
 108 0050 3B1C     		mov	r3, r7
 109 0052 0E33     		add	r3, r3, #14
 110 0054 1A88     		ldrh	r2, [r3]
 111 0056 3B1C     		mov	r3, r7
 112 0058 0E33     		add	r3, r3, #14
 113 005a 013A     		sub	r2, r2, #1
 114 005c 1A80     		strh	r2, [r3]
 115              	.L2:
  37:.\piezoelectric.c ****     }
  38:.\piezoelectric.c ****     
  39:.\piezoelectric.c ****     // Set period to frequency value
  40:.\piezoelectric.c ****     PWM_1_WritePeriod(period_ticks);
 116              		.loc 1 40 0
 117 005e BB68     		ldr	r3, [r7, #8]
 118 0060 181C     		mov	r0, r3
 119 0062 FFF7FEFF 		bl	PWM_1_WritePeriod
  41:.\piezoelectric.c ****     
  42:.\piezoelectric.c ****     // Set compare to toggle on duty cycle ticks
  43:.\piezoelectric.c ****     PWM_1_WriteCompare(compare_ticks);
 120              		.loc 1 43 0
 121 0066 3B1C     		mov	r3, r7
 122 0068 0E33     		add	r3, r3, #14
 123 006a 1B88     		ldrh	r3, [r3]
 124 006c 181C     		mov	r0, r3
 125 006e FFF7FEFF 		bl	PWM_1_WriteCompare
  44:.\piezoelectric.c **** }
 126              		.loc 1 44 0
 127 0072 BD46     		mov	sp, r7
ARM GAS  C:\Users\TINYWI~1\AppData\Local\Temp\ccHgJHYX.s 			page 4


 128 0074 04B0     		add	sp, sp, #16
 129              		@ sp needed
 130 0076 80BD     		pop	{r7, pc}
 131              	.L4:
 132              		.align	2
 133              	.L3:
 134 0078 00000000 		.word	current_frequency
 135 007c 80841E00 		.word	2000000
 136 0080 00000000 		.word	volume
 137              		.cfi_endproc
 138              	.LFE33:
 139              		.size	piezo_tone, .-piezo_tone
 140              		.section	.text.piezo_volume,"ax",%progbits
 141              		.align	2
 142              		.global	piezo_volume
 143              		.code	16
 144              		.thumb_func
 145              		.type	piezo_volume, %function
 146              	piezo_volume:
 147              	.LFB34:
  45:.\piezoelectric.c **** 
  46:.\piezoelectric.c **** void piezo_volume(uint8 value)
  47:.\piezoelectric.c **** {
 148              		.loc 1 47 0
 149              		.cfi_startproc
 150 0000 80B5     		push	{r7, lr}
 151              		.cfi_def_cfa_offset 8
 152              		.cfi_offset 7, -8
 153              		.cfi_offset 14, -4
 154 0002 82B0     		sub	sp, sp, #8
 155              		.cfi_def_cfa_offset 16
 156 0004 00AF     		add	r7, sp, #0
 157              		.cfi_def_cfa_register 7
 158 0006 021C     		mov	r2, r0
 159 0008 FB1D     		add	r3, r7, #7
 160 000a 1A70     		strb	r2, [r3]
  48:.\piezoelectric.c ****     volume = value;
 161              		.loc 1 48 0
 162 000c 054B     		ldr	r3, .L6
 163 000e FA1D     		add	r2, r7, #7
 164 0010 1278     		ldrb	r2, [r2]
 165 0012 1A70     		strb	r2, [r3]
  49:.\piezoelectric.c ****     piezo_tone(current_frequency);
 166              		.loc 1 49 0
 167 0014 044B     		ldr	r3, .L6+4
 168 0016 1B88     		ldrh	r3, [r3]
 169 0018 181C     		mov	r0, r3
 170 001a FFF7FEFF 		bl	piezo_tone
  50:.\piezoelectric.c **** }
 171              		.loc 1 50 0
 172 001e BD46     		mov	sp, r7
 173 0020 02B0     		add	sp, sp, #8
 174              		@ sp needed
 175 0022 80BD     		pop	{r7, pc}
 176              	.L7:
 177              		.align	2
 178              	.L6:
ARM GAS  C:\Users\TINYWI~1\AppData\Local\Temp\ccHgJHYX.s 			page 5


 179 0024 00000000 		.word	volume
 180 0028 00000000 		.word	current_frequency
 181              		.cfi_endproc
 182              	.LFE34:
 183              		.size	piezo_volume, .-piezo_volume
 184              		.section	.text.piezo_tempo,"ax",%progbits
 185              		.align	2
 186              		.global	piezo_tempo
 187              		.code	16
 188              		.thumb_func
 189              		.type	piezo_tempo, %function
 190              	piezo_tempo:
 191              	.LFB35:
  51:.\piezoelectric.c ****     
  52:.\piezoelectric.c **** void piezo_tempo(uint8 bpm)
  53:.\piezoelectric.c **** {
 192              		.loc 1 53 0
 193              		.cfi_startproc
 194 0000 80B5     		push	{r7, lr}
 195              		.cfi_def_cfa_offset 8
 196              		.cfi_offset 7, -8
 197              		.cfi_offset 14, -4
 198 0002 82B0     		sub	sp, sp, #8
 199              		.cfi_def_cfa_offset 16
 200 0004 00AF     		add	r7, sp, #0
 201              		.cfi_def_cfa_register 7
 202 0006 021C     		mov	r2, r0
 203 0008 FB1D     		add	r3, r7, #7
 204 000a 1A70     		strb	r2, [r3]
  54:.\piezoelectric.c ****     tempo = bpm;
 205              		.loc 1 54 0
 206 000c 034B     		ldr	r3, .L9
 207 000e FA1D     		add	r2, r7, #7
 208 0010 1278     		ldrb	r2, [r2]
 209 0012 1A70     		strb	r2, [r3]
  55:.\piezoelectric.c **** }
 210              		.loc 1 55 0
 211 0014 BD46     		mov	sp, r7
 212 0016 02B0     		add	sp, sp, #8
 213              		@ sp needed
 214 0018 80BD     		pop	{r7, pc}
 215              	.L10:
 216 001a C046     		.align	2
 217              	.L9:
 218 001c 00000000 		.word	tempo
 219              		.cfi_endproc
 220              	.LFE35:
 221              		.size	piezo_tempo, .-piezo_tempo
 222              		.section	.text.piezo_stop,"ax",%progbits
 223              		.align	2
 224              		.global	piezo_stop
 225              		.code	16
 226              		.thumb_func
 227              		.type	piezo_stop, %function
 228              	piezo_stop:
 229              	.LFB36:
  56:.\piezoelectric.c **** 
ARM GAS  C:\Users\TINYWI~1\AppData\Local\Temp\ccHgJHYX.s 			page 6


  57:.\piezoelectric.c **** void piezo_stop()
  58:.\piezoelectric.c **** {
 230              		.loc 1 58 0
 231              		.cfi_startproc
 232 0000 80B5     		push	{r7, lr}
 233              		.cfi_def_cfa_offset 8
 234              		.cfi_offset 7, -8
 235              		.cfi_offset 14, -4
 236 0002 00AF     		add	r7, sp, #0
 237              		.cfi_def_cfa_register 7
  59:.\piezoelectric.c ****     PWM_1_WriteCompare(0);
 238              		.loc 1 59 0
 239 0004 0020     		mov	r0, #0
 240 0006 FFF7FEFF 		bl	PWM_1_WriteCompare
  60:.\piezoelectric.c **** }
 241              		.loc 1 60 0
 242 000a BD46     		mov	sp, r7
 243              		@ sp needed
 244 000c 80BD     		pop	{r7, pc}
 245              		.cfi_endproc
 246              	.LFE36:
 247              		.size	piezo_stop, .-piezo_stop
 248 000e C046     		.section	.text.piezo_play,"ax",%progbits
 249              		.align	2
 250              		.global	piezo_play
 251              		.code	16
 252              		.thumb_func
 253              		.type	piezo_play, %function
 254              	piezo_play:
 255              	.LFB37:
  61:.\piezoelectric.c **** 
  62:.\piezoelectric.c **** void piezo_play(uint16 frequency_value, uint8 note)
  63:.\piezoelectric.c **** {
 256              		.loc 1 63 0
 257              		.cfi_startproc
 258 0000 80B5     		push	{r7, lr}
 259              		.cfi_def_cfa_offset 8
 260              		.cfi_offset 7, -8
 261              		.cfi_offset 14, -4
 262 0002 84B0     		sub	sp, sp, #16
 263              		.cfi_def_cfa_offset 24
 264 0004 00AF     		add	r7, sp, #0
 265              		.cfi_def_cfa_register 7
 266 0006 0A1C     		mov	r2, r1
 267 0008 BB1D     		add	r3, r7, #6
 268 000a 011C     		add	r1, r0, #0
 269 000c 1980     		strh	r1, [r3]
 270 000e 7B1D     		add	r3, r7, #5
 271 0010 1A70     		strb	r2, [r3]
  64:.\piezoelectric.c ****     
  65:.\piezoelectric.c ****     // duty cycle ticks is a percentage of frequency based on volume
  66:.\piezoelectric.c ****     int period_ticks = f_clock * freq_mod / frequency_value;
 272              		.loc 1 66 0
 273 0012 204B     		ldr	r3, .L13
 274 0014 0A22     		mov	r2, #10
 275 0016 5A43     		mul	r2, r3
 276 0018 BB1D     		add	r3, r7, #6
ARM GAS  C:\Users\TINYWI~1\AppData\Local\Temp\ccHgJHYX.s 			page 7


 277 001a 1B88     		ldrh	r3, [r3]
 278 001c 101C     		mov	r0, r2
 279 001e 191C     		mov	r1, r3
 280 0020 FFF7FEFF 		bl	__aeabi_idiv
 281 0024 031C     		mov	r3, r0
 282 0026 FB60     		str	r3, [r7, #12]
  67:.\piezoelectric.c ****     uint16 compare_ticks = period_ticks * volume / 100;
 283              		.loc 1 67 0
 284 0028 1B4B     		ldr	r3, .L13+4
 285 002a 1B78     		ldrb	r3, [r3]
 286 002c FA68     		ldr	r2, [r7, #12]
 287 002e 5343     		mul	r3, r2
 288 0030 181C     		mov	r0, r3
 289 0032 6421     		mov	r1, #100
 290 0034 FFF7FEFF 		bl	__aeabi_idiv
 291 0038 031C     		mov	r3, r0
 292 003a 1A1C     		mov	r2, r3
 293 003c 3B1C     		mov	r3, r7
 294 003e 0A33     		add	r3, r3, #10
 295 0040 1A80     		strh	r2, [r3]
  68:.\piezoelectric.c ****     
  69:.\piezoelectric.c ****     
  70:.\piezoelectric.c ****     // Set period to frequency value
  71:.\piezoelectric.c ****     PWM_1_WritePeriod(period_ticks);
 296              		.loc 1 71 0
 297 0042 FB68     		ldr	r3, [r7, #12]
 298 0044 181C     		mov	r0, r3
 299 0046 FFF7FEFF 		bl	PWM_1_WritePeriod
  72:.\piezoelectric.c ****     
  73:.\piezoelectric.c ****     // Set compare to toggle on duty cycle ticks
  74:.\piezoelectric.c ****     PWM_1_WriteCompare(compare_ticks);
 300              		.loc 1 74 0
 301 004a 3B1C     		mov	r3, r7
 302 004c 0A33     		add	r3, r3, #10
 303 004e 1B88     		ldrh	r3, [r3]
 304 0050 181C     		mov	r0, r3
 305 0052 FFF7FEFF 		bl	PWM_1_WriteCompare
  75:.\piezoelectric.c ****     
  76:.\piezoelectric.c ****     // Figure out the duration of the note and set and trigger the interrupt timer
  77:.\piezoelectric.c ****     uint16 duration = 60000/tempo/note;
 306              		.loc 1 77 0
 307 0056 114B     		ldr	r3, .L13+8
 308 0058 1B78     		ldrb	r3, [r3]
 309 005a 1148     		ldr	r0, .L13+12
 310 005c 191C     		mov	r1, r3
 311 005e FFF7FEFF 		bl	__aeabi_idiv
 312 0062 031C     		mov	r3, r0
 313 0064 1A1C     		mov	r2, r3
 314 0066 7B1D     		add	r3, r7, #5
 315 0068 1B78     		ldrb	r3, [r3]
 316 006a 101C     		mov	r0, r2
 317 006c 191C     		mov	r1, r3
 318 006e FFF7FEFF 		bl	__aeabi_idiv
 319 0072 031C     		mov	r3, r0
 320 0074 1A1C     		mov	r2, r3
 321 0076 3B1C     		mov	r3, r7
 322 0078 0833     		add	r3, r3, #8
ARM GAS  C:\Users\TINYWI~1\AppData\Local\Temp\ccHgJHYX.s 			page 8


 323 007a 1A80     		strh	r2, [r3]
  78:.\piezoelectric.c ****     Timer_1_WriteCompare(duration);
 324              		.loc 1 78 0
 325 007c 3B1C     		mov	r3, r7
 326 007e 0833     		add	r3, r3, #8
 327 0080 1B88     		ldrh	r3, [r3]
 328 0082 181C     		mov	r0, r3
 329 0084 FFF7FEFF 		bl	Timer_1_WriteCompare
  79:.\piezoelectric.c ****     TRIGGER_TIMER_Write(1);
 330              		.loc 1 79 0
 331 0088 0120     		mov	r0, #1
 332 008a FFF7FEFF 		bl	TRIGGER_TIMER_Write
  80:.\piezoelectric.c ****     //TRIGGER_TIMER_Write(0);
  81:.\piezoelectric.c **** }
 333              		.loc 1 81 0
 334 008e BD46     		mov	sp, r7
 335 0090 04B0     		add	sp, sp, #16
 336              		@ sp needed
 337 0092 80BD     		pop	{r7, pc}
 338              	.L14:
 339              		.align	2
 340              	.L13:
 341 0094 80841E00 		.word	2000000
 342 0098 00000000 		.word	volume
 343 009c 00000000 		.word	tempo
 344 00a0 60EA0000 		.word	60000
 345              		.cfi_endproc
 346              	.LFE37:
 347              		.size	piezo_play, .-piezo_play
 348              		.section	.text.piezo_rest,"ax",%progbits
 349              		.align	2
 350              		.global	piezo_rest
 351              		.code	16
 352              		.thumb_func
 353              		.type	piezo_rest, %function
 354              	piezo_rest:
 355              	.LFB38:
  82:.\piezoelectric.c **** 
  83:.\piezoelectric.c **** void piezo_rest(uint8 note)
  84:.\piezoelectric.c **** {
 356              		.loc 1 84 0
 357              		.cfi_startproc
 358 0000 80B5     		push	{r7, lr}
 359              		.cfi_def_cfa_offset 8
 360              		.cfi_offset 7, -8
 361              		.cfi_offset 14, -4
 362 0002 84B0     		sub	sp, sp, #16
 363              		.cfi_def_cfa_offset 24
 364 0004 00AF     		add	r7, sp, #0
 365              		.cfi_def_cfa_register 7
 366 0006 021C     		mov	r2, r0
 367 0008 FB1D     		add	r3, r7, #7
 368 000a 1A70     		strb	r2, [r3]
  85:.\piezoelectric.c ****     // figure out the duration of this note (in ms), given the current tempo (which is in bps)
  86:.\piezoelectric.c ****     uint16 duration = 60000/tempo/note;
 369              		.loc 1 86 0
 370 000c 0E4B     		ldr	r3, .L16
ARM GAS  C:\Users\TINYWI~1\AppData\Local\Temp\ccHgJHYX.s 			page 9


 371 000e 1B78     		ldrb	r3, [r3]
 372 0010 0E48     		ldr	r0, .L16+4
 373 0012 191C     		mov	r1, r3
 374 0014 FFF7FEFF 		bl	__aeabi_idiv
 375 0018 031C     		mov	r3, r0
 376 001a 1A1C     		mov	r2, r3
 377 001c FB1D     		add	r3, r7, #7
 378 001e 1B78     		ldrb	r3, [r3]
 379 0020 101C     		mov	r0, r2
 380 0022 191C     		mov	r1, r3
 381 0024 FFF7FEFF 		bl	__aeabi_idiv
 382 0028 031C     		mov	r3, r0
 383 002a 1A1C     		mov	r2, r3
 384 002c 3B1C     		mov	r3, r7
 385 002e 0E33     		add	r3, r3, #14
 386 0030 1A80     		strh	r2, [r3]
  87:.\piezoelectric.c ****     piezo_stop();
 387              		.loc 1 87 0
 388 0032 FFF7FEFF 		bl	piezo_stop
  88:.\piezoelectric.c ****     CyDelay(duration);
 389              		.loc 1 88 0
 390 0036 3B1C     		mov	r3, r7
 391 0038 0E33     		add	r3, r3, #14
 392 003a 1B88     		ldrh	r3, [r3]
 393 003c 181C     		mov	r0, r3
 394 003e FFF7FEFF 		bl	CyDelay
  89:.\piezoelectric.c **** }
 395              		.loc 1 89 0
 396 0042 BD46     		mov	sp, r7
 397 0044 04B0     		add	sp, sp, #16
 398              		@ sp needed
 399 0046 80BD     		pop	{r7, pc}
 400              	.L17:
 401              		.align	2
 402              	.L16:
 403 0048 00000000 		.word	tempo
 404 004c 60EA0000 		.word	60000
 405              		.cfi_endproc
 406              	.LFE38:
 407              		.size	piezo_rest, .-piezo_rest
 408              		.section	.text.piezo_melody,"ax",%progbits
 409              		.align	2
 410              		.global	piezo_melody
 411              		.code	16
 412              		.thumb_func
 413              		.type	piezo_melody, %function
 414              	piezo_melody:
 415              	.LFB39:
  90:.\piezoelectric.c **** 
  91:.\piezoelectric.c **** void piezo_melody(uint16* frequencies, uint8 num)
  92:.\piezoelectric.c **** {
 416              		.loc 1 92 0
 417              		.cfi_startproc
 418 0000 80B5     		push	{r7, lr}
 419              		.cfi_def_cfa_offset 8
 420              		.cfi_offset 7, -8
 421              		.cfi_offset 14, -4
ARM GAS  C:\Users\TINYWI~1\AppData\Local\Temp\ccHgJHYX.s 			page 10


 422 0002 84B0     		sub	sp, sp, #16
 423              		.cfi_def_cfa_offset 24
 424 0004 00AF     		add	r7, sp, #0
 425              		.cfi_def_cfa_register 7
 426 0006 7860     		str	r0, [r7, #4]
 427 0008 0A1C     		mov	r2, r1
 428 000a FB1C     		add	r3, r7, #3
 429 000c 1A70     		strb	r2, [r3]
  93:.\piezoelectric.c ****     uint8 i, note;
  94:.\piezoelectric.c ****     uint16 tone;
  95:.\piezoelectric.c ****     for (i=0; i<num; i+=2)
 430              		.loc 1 95 0
 431 000e 3B1C     		mov	r3, r7
 432 0010 0F33     		add	r3, r3, #15
 433 0012 0022     		mov	r2, #0
 434 0014 1A70     		strb	r2, [r3]
 435 0016 31E0     		b	.L19
 436              	.L22:
  96:.\piezoelectric.c ****     {
  97:.\piezoelectric.c ****         tone = frequencies[i];
 437              		.loc 1 97 0
 438 0018 3B1C     		mov	r3, r7
 439 001a 0F33     		add	r3, r3, #15
 440 001c 1B78     		ldrb	r3, [r3]
 441 001e 5B00     		lsl	r3, r3, #1
 442 0020 7A68     		ldr	r2, [r7, #4]
 443 0022 D218     		add	r2, r2, r3
 444 0024 3B1C     		mov	r3, r7
 445 0026 0C33     		add	r3, r3, #12
 446 0028 1288     		ldrh	r2, [r2]
 447 002a 1A80     		strh	r2, [r3]
  98:.\piezoelectric.c ****         note = frequencies[i+1];
 448              		.loc 1 98 0
 449 002c 3B1C     		mov	r3, r7
 450 002e 0F33     		add	r3, r3, #15
 451 0030 1B78     		ldrb	r3, [r3]
 452 0032 0133     		add	r3, r3, #1
 453 0034 5B00     		lsl	r3, r3, #1
 454 0036 7A68     		ldr	r2, [r7, #4]
 455 0038 D318     		add	r3, r2, r3
 456 003a 1A88     		ldrh	r2, [r3]
 457 003c 3B1C     		mov	r3, r7
 458 003e 0B33     		add	r3, r3, #11
 459 0040 1A70     		strb	r2, [r3]
  99:.\piezoelectric.c ****         if (tone == 0)
 460              		.loc 1 99 0
 461 0042 3B1C     		mov	r3, r7
 462 0044 0C33     		add	r3, r3, #12
 463 0046 1B88     		ldrh	r3, [r3]
 464 0048 002B     		cmp	r3, #0
 465 004a 06D1     		bne	.L20
 100:.\piezoelectric.c ****         {
 101:.\piezoelectric.c ****             piezo_rest(note);
 466              		.loc 1 101 0
 467 004c 3B1C     		mov	r3, r7
 468 004e 0B33     		add	r3, r3, #11
 469 0050 1B78     		ldrb	r3, [r3]
ARM GAS  C:\Users\TINYWI~1\AppData\Local\Temp\ccHgJHYX.s 			page 11


 470 0052 181C     		mov	r0, r3
 471 0054 FFF7FEFF 		bl	piezo_rest
 472 0058 09E0     		b	.L21
 473              	.L20:
 102:.\piezoelectric.c ****         }
 103:.\piezoelectric.c ****         else 
 104:.\piezoelectric.c ****         {
 105:.\piezoelectric.c ****             piezo_play(tone, note);
 474              		.loc 1 105 0
 475 005a 3B1C     		mov	r3, r7
 476 005c 0C33     		add	r3, r3, #12
 477 005e 1A88     		ldrh	r2, [r3]
 478 0060 3B1C     		mov	r3, r7
 479 0062 0B33     		add	r3, r3, #11
 480 0064 1B78     		ldrb	r3, [r3]
 481 0066 101C     		mov	r0, r2
 482 0068 191C     		mov	r1, r3
 483 006a FFF7FEFF 		bl	piezo_play
 484              	.L21:
  95:.\piezoelectric.c ****     for (i=0; i<num; i+=2)
 485              		.loc 1 95 0
 486 006e 3B1C     		mov	r3, r7
 487 0070 0F33     		add	r3, r3, #15
 488 0072 3A1C     		mov	r2, r7
 489 0074 0F32     		add	r2, r2, #15
 490 0076 1278     		ldrb	r2, [r2]
 491 0078 0232     		add	r2, r2, #2
 492 007a 1A70     		strb	r2, [r3]
 493              	.L19:
  95:.\piezoelectric.c ****     for (i=0; i<num; i+=2)
 494              		.loc 1 95 0 is_stmt 0 discriminator 1
 495 007c 3A1C     		mov	r2, r7
 496 007e 0F32     		add	r2, r2, #15
 497 0080 FB1C     		add	r3, r7, #3
 498 0082 1278     		ldrb	r2, [r2]
 499 0084 1B78     		ldrb	r3, [r3]
 500 0086 9A42     		cmp	r2, r3
 501 0088 C6D3     		bcc	.L22
 106:.\piezoelectric.c ****         }
 107:.\piezoelectric.c ****     }
 108:.\piezoelectric.c **** }
 502              		.loc 1 108 0 is_stmt 1
 503 008a BD46     		mov	sp, r7
 504 008c 04B0     		add	sp, sp, #16
 505              		@ sp needed
 506 008e 80BD     		pop	{r7, pc}
 507              		.cfi_endproc
 508              	.LFE39:
 509              		.size	piezo_melody, .-piezo_melody
 510              		.text
 511              	.Letext0:
 512              		.file 2 "Generated_Source\\PSoC4/cytypes.h"