ARM GAS  C:\Users\IEUser\AppData\Local\Temp\cczevdkA.s 			page 1


   1              		.cpu cortex-m0
   2              		.fpu softvfp
   3              		.eabi_attribute 20, 1
   4              		.eabi_attribute 21, 1
   5              		.eabi_attribute 23, 3
   6              		.eabi_attribute 24, 1
   7              		.eabi_attribute 25, 1
   8              		.eabi_attribute 26, 1
   9              		.eabi_attribute 30, 6
  10              		.eabi_attribute 34, 0
  11              		.eabi_attribute 18, 4
  12              		.code	16
  13              		.file	"PWM_1_PM.c"
  14              		.text
  15              	.Ltext0:
  16              		.cfi_sections	.debug_frame
  17              		.bss
  18              		.align	2
  19              	PWM_1_backup:
  20 0000 00       		.space	1
  21 0001 000000   		.section	.text.PWM_1_SaveConfig,"ax",%progbits
  22              		.align	2
  23              		.global	PWM_1_SaveConfig
  24              		.code	16
  25              		.thumb_func
  26              		.type	PWM_1_SaveConfig, %function
  27              	PWM_1_SaveConfig:
  28              	.LFB0:
  29              		.file 1 ".\\Generated_Source\\PSoC4\\PWM_1_PM.c"
   1:.\Generated_Source\PSoC4/PWM_1_PM.c **** /*******************************************************************************
   2:.\Generated_Source\PSoC4/PWM_1_PM.c **** * File Name: PWM_1_PM.c
   3:.\Generated_Source\PSoC4/PWM_1_PM.c **** * Version 1.10
   4:.\Generated_Source\PSoC4/PWM_1_PM.c **** *
   5:.\Generated_Source\PSoC4/PWM_1_PM.c **** * Description:
   6:.\Generated_Source\PSoC4/PWM_1_PM.c **** *  This file contains the setup, control, and status commands to support
   7:.\Generated_Source\PSoC4/PWM_1_PM.c **** *  the component operations in the low power mode.
   8:.\Generated_Source\PSoC4/PWM_1_PM.c **** *
   9:.\Generated_Source\PSoC4/PWM_1_PM.c **** * Note:
  10:.\Generated_Source\PSoC4/PWM_1_PM.c **** *  None
  11:.\Generated_Source\PSoC4/PWM_1_PM.c **** *
  12:.\Generated_Source\PSoC4/PWM_1_PM.c **** ********************************************************************************
  13:.\Generated_Source\PSoC4/PWM_1_PM.c **** * Copyright 2013-2014, Cypress Semiconductor Corporation.  All rights reserved.
  14:.\Generated_Source\PSoC4/PWM_1_PM.c **** * You may use this file only in accordance with the license, terms, conditions,
  15:.\Generated_Source\PSoC4/PWM_1_PM.c **** * disclaimers, and limitations in the end user license agreement accompanying
  16:.\Generated_Source\PSoC4/PWM_1_PM.c **** * the software package with which this file was provided.
  17:.\Generated_Source\PSoC4/PWM_1_PM.c **** *******************************************************************************/
  18:.\Generated_Source\PSoC4/PWM_1_PM.c **** 
  19:.\Generated_Source\PSoC4/PWM_1_PM.c **** #include "PWM_1.h"
  20:.\Generated_Source\PSoC4/PWM_1_PM.c **** 
  21:.\Generated_Source\PSoC4/PWM_1_PM.c **** static PWM_1_BACKUP_STRUCT PWM_1_backup;
  22:.\Generated_Source\PSoC4/PWM_1_PM.c **** 
  23:.\Generated_Source\PSoC4/PWM_1_PM.c **** 
  24:.\Generated_Source\PSoC4/PWM_1_PM.c **** /*******************************************************************************
  25:.\Generated_Source\PSoC4/PWM_1_PM.c **** * Function Name: PWM_1_SaveConfig
  26:.\Generated_Source\PSoC4/PWM_1_PM.c **** ********************************************************************************
  27:.\Generated_Source\PSoC4/PWM_1_PM.c **** *
  28:.\Generated_Source\PSoC4/PWM_1_PM.c **** * Summary:
ARM GAS  C:\Users\IEUser\AppData\Local\Temp\cczevdkA.s 			page 2


  29:.\Generated_Source\PSoC4/PWM_1_PM.c **** *  All configuration registers are retention. Nothing to save here.
  30:.\Generated_Source\PSoC4/PWM_1_PM.c **** *
  31:.\Generated_Source\PSoC4/PWM_1_PM.c **** * Parameters:
  32:.\Generated_Source\PSoC4/PWM_1_PM.c **** *  None
  33:.\Generated_Source\PSoC4/PWM_1_PM.c **** *
  34:.\Generated_Source\PSoC4/PWM_1_PM.c **** * Return:
  35:.\Generated_Source\PSoC4/PWM_1_PM.c **** *  None
  36:.\Generated_Source\PSoC4/PWM_1_PM.c **** *
  37:.\Generated_Source\PSoC4/PWM_1_PM.c **** *******************************************************************************/
  38:.\Generated_Source\PSoC4/PWM_1_PM.c **** void PWM_1_SaveConfig(void)
  39:.\Generated_Source\PSoC4/PWM_1_PM.c **** {
  30              		.loc 1 39 0
  31              		.cfi_startproc
  32 0000 80B5     		push	{r7, lr}
  33              		.cfi_def_cfa_offset 8
  34              		.cfi_offset 7, -8
  35              		.cfi_offset 14, -4
  36 0002 00AF     		add	r7, sp, #0
  37              		.cfi_def_cfa_register 7
  40:.\Generated_Source\PSoC4/PWM_1_PM.c **** 
  41:.\Generated_Source\PSoC4/PWM_1_PM.c **** }
  38              		.loc 1 41 0
  39 0004 BD46     		mov	sp, r7
  40              		@ sp needed
  41 0006 80BD     		pop	{r7, pc}
  42              		.cfi_endproc
  43              	.LFE0:
  44              		.size	PWM_1_SaveConfig, .-PWM_1_SaveConfig
  45              		.section	.text.PWM_1_Sleep,"ax",%progbits
  46              		.align	2
  47              		.global	PWM_1_Sleep
  48              		.code	16
  49              		.thumb_func
  50              		.type	PWM_1_Sleep, %function
  51              	PWM_1_Sleep:
  52              	.LFB1:
  42:.\Generated_Source\PSoC4/PWM_1_PM.c **** 
  43:.\Generated_Source\PSoC4/PWM_1_PM.c **** 
  44:.\Generated_Source\PSoC4/PWM_1_PM.c **** /*******************************************************************************
  45:.\Generated_Source\PSoC4/PWM_1_PM.c **** * Function Name: PWM_1_Sleep
  46:.\Generated_Source\PSoC4/PWM_1_PM.c **** ********************************************************************************
  47:.\Generated_Source\PSoC4/PWM_1_PM.c **** *
  48:.\Generated_Source\PSoC4/PWM_1_PM.c **** * Summary:
  49:.\Generated_Source\PSoC4/PWM_1_PM.c **** *  Stops the component operation and saves the user configuration.
  50:.\Generated_Source\PSoC4/PWM_1_PM.c **** *
  51:.\Generated_Source\PSoC4/PWM_1_PM.c **** * Parameters:
  52:.\Generated_Source\PSoC4/PWM_1_PM.c **** *  None
  53:.\Generated_Source\PSoC4/PWM_1_PM.c **** *
  54:.\Generated_Source\PSoC4/PWM_1_PM.c **** * Return:
  55:.\Generated_Source\PSoC4/PWM_1_PM.c **** *  None
  56:.\Generated_Source\PSoC4/PWM_1_PM.c **** *
  57:.\Generated_Source\PSoC4/PWM_1_PM.c **** *******************************************************************************/
  58:.\Generated_Source\PSoC4/PWM_1_PM.c **** void PWM_1_Sleep(void)
  59:.\Generated_Source\PSoC4/PWM_1_PM.c **** {
  53              		.loc 1 59 0
  54              		.cfi_startproc
  55 0000 80B5     		push	{r7, lr}
ARM GAS  C:\Users\IEUser\AppData\Local\Temp\cczevdkA.s 			page 3


  56              		.cfi_def_cfa_offset 8
  57              		.cfi_offset 7, -8
  58              		.cfi_offset 14, -4
  59 0002 00AF     		add	r7, sp, #0
  60              		.cfi_def_cfa_register 7
  60:.\Generated_Source\PSoC4/PWM_1_PM.c ****     if(0u != (PWM_1_BLOCK_CONTROL_REG & PWM_1_MASK))
  61              		.loc 1 60 0
  62 0004 084B     		ldr	r3, .L5
  63 0006 1A68     		ldr	r2, [r3]
  64 0008 0123     		mov	r3, #1
  65 000a 1340     		and	r3, r2
  66 000c 03D0     		beq	.L3
  61:.\Generated_Source\PSoC4/PWM_1_PM.c ****     {
  62:.\Generated_Source\PSoC4/PWM_1_PM.c ****         PWM_1_backup.enableState = 1u;
  67              		.loc 1 62 0
  68 000e 074B     		ldr	r3, .L5+4
  69 0010 0122     		mov	r2, #1
  70 0012 1A70     		strb	r2, [r3]
  71 0014 02E0     		b	.L4
  72              	.L3:
  63:.\Generated_Source\PSoC4/PWM_1_PM.c ****     }
  64:.\Generated_Source\PSoC4/PWM_1_PM.c ****     else
  65:.\Generated_Source\PSoC4/PWM_1_PM.c ****     {
  66:.\Generated_Source\PSoC4/PWM_1_PM.c ****         PWM_1_backup.enableState = 0u;
  73              		.loc 1 66 0
  74 0016 054B     		ldr	r3, .L5+4
  75 0018 0022     		mov	r2, #0
  76 001a 1A70     		strb	r2, [r3]
  77              	.L4:
  67:.\Generated_Source\PSoC4/PWM_1_PM.c ****     }
  68:.\Generated_Source\PSoC4/PWM_1_PM.c **** 
  69:.\Generated_Source\PSoC4/PWM_1_PM.c ****     PWM_1_Stop();
  78              		.loc 1 69 0
  79 001c FFF7FEFF 		bl	PWM_1_Stop
  70:.\Generated_Source\PSoC4/PWM_1_PM.c ****     PWM_1_SaveConfig();
  80              		.loc 1 70 0
  81 0020 FFF7FEFF 		bl	PWM_1_SaveConfig
  71:.\Generated_Source\PSoC4/PWM_1_PM.c **** }
  82              		.loc 1 71 0
  83 0024 BD46     		mov	sp, r7
  84              		@ sp needed
  85 0026 80BD     		pop	{r7, pc}
  86              	.L6:
  87              		.align	2
  88              	.L5:
  89 0028 00000540 		.word	1074069504
  90 002c 00000000 		.word	PWM_1_backup
  91              		.cfi_endproc
  92              	.LFE1:
  93              		.size	PWM_1_Sleep, .-PWM_1_Sleep
  94              		.section	.text.PWM_1_RestoreConfig,"ax",%progbits
  95              		.align	2
  96              		.global	PWM_1_RestoreConfig
  97              		.code	16
  98              		.thumb_func
  99              		.type	PWM_1_RestoreConfig, %function
 100              	PWM_1_RestoreConfig:
ARM GAS  C:\Users\IEUser\AppData\Local\Temp\cczevdkA.s 			page 4


 101              	.LFB2:
  72:.\Generated_Source\PSoC4/PWM_1_PM.c **** 
  73:.\Generated_Source\PSoC4/PWM_1_PM.c **** 
  74:.\Generated_Source\PSoC4/PWM_1_PM.c **** /*******************************************************************************
  75:.\Generated_Source\PSoC4/PWM_1_PM.c **** * Function Name: PWM_1_RestoreConfig
  76:.\Generated_Source\PSoC4/PWM_1_PM.c **** ********************************************************************************
  77:.\Generated_Source\PSoC4/PWM_1_PM.c **** *
  78:.\Generated_Source\PSoC4/PWM_1_PM.c **** * Summary:
  79:.\Generated_Source\PSoC4/PWM_1_PM.c **** *  All configuration registers are retention. Nothing to restore here.
  80:.\Generated_Source\PSoC4/PWM_1_PM.c **** *
  81:.\Generated_Source\PSoC4/PWM_1_PM.c **** * Parameters:
  82:.\Generated_Source\PSoC4/PWM_1_PM.c **** *  None
  83:.\Generated_Source\PSoC4/PWM_1_PM.c **** *
  84:.\Generated_Source\PSoC4/PWM_1_PM.c **** * Return:
  85:.\Generated_Source\PSoC4/PWM_1_PM.c **** *  None
  86:.\Generated_Source\PSoC4/PWM_1_PM.c **** *
  87:.\Generated_Source\PSoC4/PWM_1_PM.c **** *******************************************************************************/
  88:.\Generated_Source\PSoC4/PWM_1_PM.c **** void PWM_1_RestoreConfig(void)
  89:.\Generated_Source\PSoC4/PWM_1_PM.c **** {
 102              		.loc 1 89 0
 103              		.cfi_startproc
 104 0000 80B5     		push	{r7, lr}
 105              		.cfi_def_cfa_offset 8
 106              		.cfi_offset 7, -8
 107              		.cfi_offset 14, -4
 108 0002 00AF     		add	r7, sp, #0
 109              		.cfi_def_cfa_register 7
  90:.\Generated_Source\PSoC4/PWM_1_PM.c **** 
  91:.\Generated_Source\PSoC4/PWM_1_PM.c **** }
 110              		.loc 1 91 0
 111 0004 BD46     		mov	sp, r7
 112              		@ sp needed
 113 0006 80BD     		pop	{r7, pc}
 114              		.cfi_endproc
 115              	.LFE2:
 116              		.size	PWM_1_RestoreConfig, .-PWM_1_RestoreConfig
 117              		.section	.text.PWM_1_Wakeup,"ax",%progbits
 118              		.align	2
 119              		.global	PWM_1_Wakeup
 120              		.code	16
 121              		.thumb_func
 122              		.type	PWM_1_Wakeup, %function
 123              	PWM_1_Wakeup:
 124              	.LFB3:
  92:.\Generated_Source\PSoC4/PWM_1_PM.c **** 
  93:.\Generated_Source\PSoC4/PWM_1_PM.c **** 
  94:.\Generated_Source\PSoC4/PWM_1_PM.c **** /*******************************************************************************
  95:.\Generated_Source\PSoC4/PWM_1_PM.c **** * Function Name: PWM_1_Wakeup
  96:.\Generated_Source\PSoC4/PWM_1_PM.c **** ********************************************************************************
  97:.\Generated_Source\PSoC4/PWM_1_PM.c **** *
  98:.\Generated_Source\PSoC4/PWM_1_PM.c **** * Summary:
  99:.\Generated_Source\PSoC4/PWM_1_PM.c **** *  Restores the user configuration and restores the enable state.
 100:.\Generated_Source\PSoC4/PWM_1_PM.c **** *
 101:.\Generated_Source\PSoC4/PWM_1_PM.c **** * Parameters:
 102:.\Generated_Source\PSoC4/PWM_1_PM.c **** *  None
 103:.\Generated_Source\PSoC4/PWM_1_PM.c **** *
 104:.\Generated_Source\PSoC4/PWM_1_PM.c **** * Return:
ARM GAS  C:\Users\IEUser\AppData\Local\Temp\cczevdkA.s 			page 5


 105:.\Generated_Source\PSoC4/PWM_1_PM.c **** *  None
 106:.\Generated_Source\PSoC4/PWM_1_PM.c **** *
 107:.\Generated_Source\PSoC4/PWM_1_PM.c **** *******************************************************************************/
 108:.\Generated_Source\PSoC4/PWM_1_PM.c **** void PWM_1_Wakeup(void)
 109:.\Generated_Source\PSoC4/PWM_1_PM.c **** {
 125              		.loc 1 109 0
 126              		.cfi_startproc
 127 0000 80B5     		push	{r7, lr}
 128              		.cfi_def_cfa_offset 8
 129              		.cfi_offset 7, -8
 130              		.cfi_offset 14, -4
 131 0002 00AF     		add	r7, sp, #0
 132              		.cfi_def_cfa_register 7
 110:.\Generated_Source\PSoC4/PWM_1_PM.c ****     PWM_1_RestoreConfig();
 133              		.loc 1 110 0
 134 0004 FFF7FEFF 		bl	PWM_1_RestoreConfig
 111:.\Generated_Source\PSoC4/PWM_1_PM.c **** 
 112:.\Generated_Source\PSoC4/PWM_1_PM.c ****     if(0u != PWM_1_backup.enableState)
 135              		.loc 1 112 0
 136 0008 034B     		ldr	r3, .L10
 137 000a 1B78     		ldrb	r3, [r3]
 138 000c 002B     		cmp	r3, #0
 139 000e 01D0     		beq	.L8
 113:.\Generated_Source\PSoC4/PWM_1_PM.c ****     {
 114:.\Generated_Source\PSoC4/PWM_1_PM.c ****         PWM_1_Enable();
 140              		.loc 1 114 0
 141 0010 FFF7FEFF 		bl	PWM_1_Enable
 142              	.L8:
 115:.\Generated_Source\PSoC4/PWM_1_PM.c ****     }
 116:.\Generated_Source\PSoC4/PWM_1_PM.c **** }
 143              		.loc 1 116 0
 144 0014 BD46     		mov	sp, r7
 145              		@ sp needed
 146 0016 80BD     		pop	{r7, pc}
 147              	.L11:
 148              		.align	2
 149              	.L10:
 150 0018 00000000 		.word	PWM_1_backup
 151              		.cfi_endproc
 152              	.LFE3:
 153              		.size	PWM_1_Wakeup, .-PWM_1_Wakeup
 154              		.text
 155              	.Letext0:
 156              		.file 2 ".\\Generated_Source\\PSoC4\\cytypes.h"
 157              		.file 3 ".\\Generated_Source\\PSoC4\\PWM_1.h"